	.section	__TEXT,__text,regular,pure_instructions
	.build_version macos, 11, 0
	.p2align	2
__ZN36_$LT$T$u20$as$u20$core..any..Any$GT$7type_id17h3d711e262771b209E:
	.cfi_startproc
	sub	sp, sp, #48
	.cfi_def_cfa_offset 48
	mov	x9, #31681
	movk	x9, #52510, lsl #16
	movk	x9, #51356, lsl #32
	movk	x9, #49570, lsl #48
	mov	x8, #61284
	movk	x8, #177, lsl #16
	movk	x8, #5761, lsl #32
	movk	x8, #64956, lsl #48
	mov.d	v0[0], x9
	mov.d	v0[1], x8
	str	q0, [sp, #32]
	ldr	q0, [sp, #32]
	mov	d1, v0[1]
	str	d1, [sp, #16]
	str	d0, [sp, #24]
	ldr	x9, [sp, #16]
	ldr	x8, [sp, #24]
	str	x9, [sp]
	str	x8, [sp, #8]
	ldr	x0, [sp]
	ldr	x1, [sp, #8]
	add	sp, sp, #48
	.cfi_def_cfa_offset 0
	ret
	.cfi_endproc

	.p2align	2
__ZN3std10sys_common9backtrace26__rust_end_short_backtrace17h931e920afff0b6edE:
	.cfi_startproc
	stp	x29, x30, [sp, #-16]!
	.cfi_def_cfa_offset 16
	mov	x29, sp
	.cfi_def_cfa w29, 16
	.cfi_offset w30, -8
	.cfi_offset w29, -16
	bl	__ZN3std9panicking11begin_panic28_$u7b$$u7b$closure$u7d$$u7d$17h54d0dd2dfb3d75d7E
	; InlineAsm Start
	; InlineAsm End
	brk	#0x1
	.cfi_endproc

	.p2align	2
__ZN3std10sys_common9backtrace28__rust_begin_short_backtrace17ha8560be6525c67edE:
	.cfi_startproc
	stp	x29, x30, [sp, #-16]!
	.cfi_def_cfa_offset 16
	mov	x29, sp
	.cfi_def_cfa w29, 16
	.cfi_offset w30, -8
	.cfi_offset w29, -16
	bl	__ZN4core3ops8function6FnOnce9call_once17h0a913df53902e0f9E
	; InlineAsm Start
	; InlineAsm End
	.cfi_def_cfa wsp, 16
	ldp	x29, x30, [sp], #16
	.cfi_def_cfa_offset 0
	.cfi_restore w30
	.cfi_restore w29
	ret
	.cfi_endproc

	.private_extern	__ZN3std2rt10lang_start17h3539623d15ccbd4aE
	.globl	__ZN3std2rt10lang_start17h3539623d15ccbd4aE
	.p2align	2
__ZN3std2rt10lang_start17h3539623d15ccbd4aE:
	.cfi_startproc
	sub	sp, sp, #48
	.cfi_def_cfa_offset 48
	stp	x29, x30, [sp, #32]
	add	x29, sp, #32
	.cfi_def_cfa w29, 16
	.cfi_offset w30, -8
	.cfi_offset w29, -16
	mov	x8, x0
	str	x1, [sp]
	mov	x0, x2
	ldr	x2, [sp]
	str	x0, [sp, #8]
	mov	x4, x3
	ldr	x3, [sp, #8]
	sub	x0, x29, #8
	stur	x8, [x29, #-8]
	adrp	x1, l___unnamed_1@PAGE
	add	x1, x1, l___unnamed_1@PAGEOFF
	bl	__ZN3std2rt19lang_start_internal17h39923ab4c3913741E
	str	x0, [sp, #16]
	ldr	x0, [sp, #16]
	.cfi_def_cfa wsp, 48
	ldp	x29, x30, [sp, #32]
	add	sp, sp, #48
	.cfi_def_cfa_offset 0
	.cfi_restore w30
	.cfi_restore w29
	ret
	.cfi_endproc

	.p2align	2
__ZN3std2rt10lang_start28_$u7b$$u7b$closure$u7d$$u7d$17h65f6febff2dbe018E:
	.cfi_startproc
	sub	sp, sp, #32
	.cfi_def_cfa_offset 32
	stp	x29, x30, [sp, #16]
	add	x29, sp, #16
	.cfi_def_cfa w29, 16
	.cfi_offset w30, -8
	.cfi_offset w29, -16
	ldr	x0, [x0]
	bl	__ZN3std10sys_common9backtrace28__rust_begin_short_backtrace17ha8560be6525c67edE
	bl	__ZN54_$LT$$LP$$RP$$u20$as$u20$std..process..Termination$GT$6report17h6050c7b93a1c6573E
	sturb	w0, [x29, #-1]
	ldurb	w0, [x29, #-1]
	.cfi_def_cfa wsp, 32
	ldp	x29, x30, [sp, #16]
	add	sp, sp, #32
	.cfi_def_cfa_offset 0
	.cfi_restore w30
	.cfi_restore w29
	ret
	.cfi_endproc

	.p2align	2
__ZN3std9panicking11begin_panic17had5db39b47896b4cE:
	.cfi_startproc
	sub	sp, sp, #48
	.cfi_def_cfa_offset 48
	stp	x29, x30, [sp, #32]
	add	x29, sp, #32
	.cfi_def_cfa w29, 16
	.cfi_offset w30, -8
	.cfi_offset w29, -16
	mov	x9, x0
	stur	x2, [x29, #-8]
	ldur	x8, [x29, #-8]
	mov	x0, sp
	str	x9, [sp]
	str	x1, [sp, #8]
	str	x8, [sp, #16]
	bl	__ZN3std10sys_common9backtrace26__rust_end_short_backtrace17h931e920afff0b6edE
	.cfi_endproc

	.p2align	2
__ZN3std9panicking11begin_panic28_$u7b$$u7b$closure$u7d$$u7d$17h54d0dd2dfb3d75d7E:
Lfunc_begin0:
	.cfi_startproc
	.cfi_personality 155, _rust_eh_personality
	.cfi_lsda 16, Lexception0
	sub	sp, sp, #64
	.cfi_def_cfa_offset 64
	stp	x29, x30, [sp, #48]
	add	x29, sp, #48
	.cfi_def_cfa w29, 16
	.cfi_offset w30, -8
	.cfi_offset w29, -16
	mov	x8, x0
	ldr	x10, [x8]
	ldr	x9, [x8, #8]
	str	x10, [sp, #16]
	str	x9, [sp, #24]
	ldr	x10, [sp, #16]
	ldr	x9, [sp, #24]
	mov	x0, sp
	str	x10, [sp]
	str	x9, [sp, #8]
	ldr	x3, [x8, #16]
Ltmp1:
	adrp	x1, l___unnamed_2@PAGE
	add	x1, x1, l___unnamed_2@PAGEOFF
	mov	x2, #0
	mov	w8, #1
	and	w4, w8, #0x1
	mov	w8, #0
	and	w5, w8, #0x1
	bl	__ZN3std9panicking20rust_panic_with_hook17h84760468187ddc85E
Ltmp2:
	b	LBB6_3
LBB6_1:
	ldur	x0, [x29, #-16]
	bl	__Unwind_Resume
LBB6_2:
Ltmp3:
	stur	x0, [x29, #-16]
	mov	x8, x1
	stur	w8, [x29, #-8]
	b	LBB6_1
LBB6_3:
	brk	#0x1
Lfunc_end0:
	.cfi_endproc
	.section	__TEXT,__gcc_except_tab
	.p2align	2, 0x0
GCC_except_table6:
Lexception0:
	.byte	255
	.byte	255
	.byte	1
	.uleb128 Lcst_end0-Lcst_begin0
Lcst_begin0:
	.uleb128 Ltmp1-Lfunc_begin0
	.uleb128 Ltmp2-Ltmp1
	.uleb128 Ltmp3-Lfunc_begin0
	.byte	0
	.uleb128 Ltmp2-Lfunc_begin0
	.uleb128 Lfunc_end0-Ltmp2
	.byte	0
	.byte	0
Lcst_end0:
	.p2align	2, 0x0

	.section	__TEXT,__text,regular,pure_instructions
	.p2align	2
__ZN41_$LT$bool$u20$as$u20$core..fmt..Debug$GT$3fmt17hb620321a489808caE:
	.cfi_startproc
	stp	x29, x30, [sp, #-16]!
	.cfi_def_cfa_offset 16
	mov	x29, sp
	.cfi_def_cfa w29, 16
	.cfi_offset w30, -8
	.cfi_offset w29, -16
	bl	__ZN43_$LT$bool$u20$as$u20$core..fmt..Display$GT$3fmt17hdd2e4571458cdc6fE
	.cfi_def_cfa wsp, 16
	ldp	x29, x30, [sp], #16
	.cfi_def_cfa_offset 0
	.cfi_restore w30
	.cfi_restore w29
	ret
	.cfi_endproc

	.p2align	2
__ZN42_$LT$$RF$T$u20$as$u20$core..fmt..Debug$GT$3fmt17h04d0284cf44c688bE:
	.cfi_startproc
	stp	x29, x30, [sp, #-16]!
	.cfi_def_cfa_offset 16
	mov	x29, sp
	.cfi_def_cfa w29, 16
	.cfi_offset w30, -8
	.cfi_offset w29, -16
	ldr	x0, [x0]
	bl	__ZN65_$LT$alloc..vec..Vec$LT$T$C$A$GT$$u20$as$u20$core..fmt..Debug$GT$3fmt17hd52e55f810623b49E
	.cfi_def_cfa wsp, 16
	ldp	x29, x30, [sp], #16
	.cfi_def_cfa_offset 0
	.cfi_restore w30
	.cfi_restore w29
	ret
	.cfi_endproc

	.p2align	2
__ZN42_$LT$$RF$T$u20$as$u20$core..fmt..Debug$GT$3fmt17h07d103376f470b26E:
	.cfi_startproc
	stp	x29, x30, [sp, #-16]!
	.cfi_def_cfa_offset 16
	mov	x29, sp
	.cfi_def_cfa w29, 16
	.cfi_offset w30, -8
	.cfi_offset w29, -16
	ldr	x0, [x0]
	bl	__ZN4core3fmt3num52_$LT$impl$u20$core..fmt..Debug$u20$for$u20$usize$GT$3fmt17h7033f97758f45be0E
	.cfi_def_cfa wsp, 16
	ldp	x29, x30, [sp], #16
	.cfi_def_cfa_offset 0
	.cfi_restore w30
	.cfi_restore w29
	ret
	.cfi_endproc

	.p2align	2
__ZN42_$LT$$RF$T$u20$as$u20$core..fmt..Debug$GT$3fmt17h1bb02d7b7e96dff5E:
	.cfi_startproc
	stp	x29, x30, [sp, #-16]!
	.cfi_def_cfa_offset 16
	mov	x29, sp
	.cfi_def_cfa w29, 16
	.cfi_offset w30, -8
	.cfi_offset w29, -16
	ldr	x0, [x0]
	bl	__ZN4core3fmt3num50_$LT$impl$u20$core..fmt..Debug$u20$for$u20$i32$GT$3fmt17hb20366c675940d9bE
	.cfi_def_cfa wsp, 16
	ldp	x29, x30, [sp], #16
	.cfi_def_cfa_offset 0
	.cfi_restore w30
	.cfi_restore w29
	ret
	.cfi_endproc

	.p2align	2
__ZN42_$LT$$RF$T$u20$as$u20$core..fmt..Debug$GT$3fmt17h33c2319c71cf6599E:
	.cfi_startproc
	stp	x29, x30, [sp, #-16]!
	.cfi_def_cfa_offset 16
	mov	x29, sp
	.cfi_def_cfa w29, 16
	.cfi_offset w30, -8
	.cfi_offset w29, -16
	ldr	x0, [x0]
	bl	__ZN57_$LT$main..vm_util..Value$u20$as$u20$core..fmt..Debug$GT$3fmt17hbf95ed63f183eb94E
	.cfi_def_cfa wsp, 16
	ldp	x29, x30, [sp], #16
	.cfi_def_cfa_offset 0
	.cfi_restore w30
	.cfi_restore w29
	ret
	.cfi_endproc

	.p2align	2
__ZN42_$LT$$RF$T$u20$as$u20$core..fmt..Debug$GT$3fmt17h4eb1fabeb362c295E:
	.cfi_startproc
	stp	x29, x30, [sp, #-16]!
	.cfi_def_cfa_offset 16
	mov	x29, sp
	.cfi_def_cfa w29, 16
	.cfi_offset w30, -8
	.cfi_offset w29, -16
	ldr	x0, [x0]
	bl	__ZN41_$LT$bool$u20$as$u20$core..fmt..Debug$GT$3fmt17hb620321a489808caE
	.cfi_def_cfa wsp, 16
	ldp	x29, x30, [sp], #16
	.cfi_def_cfa_offset 0
	.cfi_restore w30
	.cfi_restore w29
	ret
	.cfi_endproc

	.p2align	2
__ZN42_$LT$$RF$T$u20$as$u20$core..fmt..Debug$GT$3fmt17h8fc3c848711e8923E:
	.cfi_startproc
	stp	x29, x30, [sp, #-16]!
	.cfi_def_cfa_offset 16
	mov	x29, sp
	.cfi_def_cfa w29, 16
	.cfi_offset w30, -8
	.cfi_offset w29, -16
	mov	x8, x0
	mov	x2, x1
	ldr	x0, [x8]
	ldr	x1, [x8, #8]
	bl	__ZN48_$LT$$u5b$T$u5d$$u20$as$u20$core..fmt..Debug$GT$3fmt17hbaafd5d4e0b380e6E
	.cfi_def_cfa wsp, 16
	ldp	x29, x30, [sp], #16
	.cfi_def_cfa_offset 0
	.cfi_restore w30
	.cfi_restore w29
	ret
	.cfi_endproc

	.p2align	2
__ZN42_$LT$$RF$T$u20$as$u20$core..fmt..Debug$GT$3fmt17h919a85546103f853E:
	.cfi_startproc
	stp	x29, x30, [sp, #-16]!
	.cfi_def_cfa_offset 16
	mov	x29, sp
	.cfi_def_cfa w29, 16
	.cfi_offset w30, -8
	.cfi_offset w29, -16
	ldr	x0, [x0]
	bl	__ZN62_$LT$main..vm_util..StackValue$u20$as$u20$core..fmt..Debug$GT$3fmt17hafd7a73d9e63f38cE
	.cfi_def_cfa wsp, 16
	ldp	x29, x30, [sp], #16
	.cfi_def_cfa_offset 0
	.cfi_restore w30
	.cfi_restore w29
	ret
	.cfi_endproc

	.p2align	2
__ZN42_$LT$$RF$T$u20$as$u20$core..fmt..Debug$GT$3fmt17h9d648b5bd8239ea2E:
	.cfi_startproc
	stp	x29, x30, [sp, #-16]!
	.cfi_def_cfa_offset 16
	mov	x29, sp
	.cfi_def_cfa w29, 16
	.cfi_offset w30, -8
	.cfi_offset w29, -16
	ldr	x0, [x0]
	bl	__ZN4core3fmt3num50_$LT$impl$u20$core..fmt..Debug$u20$for$u20$i64$GT$3fmt17h70e019a2bdff87f3E
	.cfi_def_cfa wsp, 16
	ldp	x29, x30, [sp], #16
	.cfi_def_cfa_offset 0
	.cfi_restore w30
	.cfi_restore w29
	ret
	.cfi_endproc

	.p2align	2
__ZN42_$LT$$RF$T$u20$as$u20$core..fmt..Debug$GT$3fmt17hbe496b7ef689d0ddE:
	.cfi_startproc
	stp	x29, x30, [sp, #-16]!
	.cfi_def_cfa_offset 16
	mov	x29, sp
	.cfi_def_cfa w29, 16
	.cfi_offset w30, -8
	.cfi_offset w29, -16
	ldr	x0, [x0]
	bl	__ZN66_$LT$main..instructions..InstrData$u20$as$u20$core..fmt..Debug$GT$3fmt17hdb4ff904094b1a9aE
	.cfi_def_cfa wsp, 16
	ldp	x29, x30, [sp], #16
	.cfi_def_cfa_offset 0
	.cfi_restore w30
	.cfi_restore w29
	ret
	.cfi_endproc

	.p2align	2
__ZN42_$LT$$RF$T$u20$as$u20$core..fmt..Debug$GT$3fmt17hd33992b29ccb3899E:
	.cfi_startproc
	stp	x29, x30, [sp, #-16]!
	.cfi_def_cfa_offset 16
	mov	x29, sp
	.cfi_def_cfa w29, 16
	.cfi_offset w30, -8
	.cfi_offset w29, -16
	ldr	x0, [x0]
	bl	__ZN70_$LT$main..instructions..InstructionV2$u20$as$u20$core..fmt..Debug$GT$3fmt17h1fc8fedb089aa03cE
	.cfi_def_cfa wsp, 16
	ldp	x29, x30, [sp], #16
	.cfi_def_cfa_offset 0
	.cfi_restore w30
	.cfi_restore w29
	ret
	.cfi_endproc

	.p2align	2
__ZN48_$LT$$u5b$T$u5d$$u20$as$u20$core..fmt..Debug$GT$3fmt17h6147861da6c066dcE:
	.cfi_startproc
	sub	sp, sp, #96
	.cfi_def_cfa_offset 96
	stp	x29, x30, [sp, #80]
	add	x29, sp, #80
	.cfi_def_cfa w29, 16
	.cfi_offset w30, -8
	.cfi_offset w29, -16
	str	x0, [sp, #8]
	str	x1, [sp]
	mov	x0, x2
	add	x8, sp, #16
	bl	__ZN4core3fmt9Formatter10debug_list17h0d0b1554eb22f7ccE
	ldr	x1, [sp]
	ldr	x0, [sp, #8]
	stur	x0, [x29, #-24]
	stur	x1, [x29, #-16]
	stur	x0, [x29, #-32]
	b	LBB18_1
LBB18_1:
	ldr	x8, [sp, #8]
	ldr	x9, [sp]
	add	x8, x8, x9, lsl #3
	stur	x8, [x29, #-8]
	b	LBB18_2
LBB18_2:
	ldur	x8, [x29, #-8]
	ldur	x9, [x29, #-32]
	str	x9, [sp, #32]
	str	x8, [sp, #40]
	ldr	x1, [sp, #32]
	ldr	x2, [sp, #40]
	add	x0, sp, #16
	bl	__ZN4core3fmt8builders9DebugList7entries17h131b3d847cf32dfbE
	bl	__ZN4core3fmt8builders9DebugList6finish17h113c11ea4e8abb88E
	.cfi_def_cfa wsp, 96
	ldp	x29, x30, [sp, #80]
	add	sp, sp, #96
	.cfi_def_cfa_offset 0
	.cfi_restore w30
	.cfi_restore w29
	ret
	.cfi_endproc

	.p2align	2
__ZN48_$LT$$u5b$T$u5d$$u20$as$u20$core..fmt..Debug$GT$3fmt17hbaafd5d4e0b380e6E:
	.cfi_startproc
	sub	sp, sp, #96
	.cfi_def_cfa_offset 96
	stp	x29, x30, [sp, #80]
	add	x29, sp, #80
	.cfi_def_cfa w29, 16
	.cfi_offset w30, -8
	.cfi_offset w29, -16
	str	x0, [sp, #8]
	str	x1, [sp]
	mov	x0, x2
	add	x8, sp, #16
	bl	__ZN4core3fmt9Formatter10debug_list17h0d0b1554eb22f7ccE
	ldr	x1, [sp]
	ldr	x0, [sp, #8]
	stur	x0, [x29, #-24]
	stur	x1, [x29, #-16]
	stur	x0, [x29, #-32]
	b	LBB19_1
LBB19_1:
	ldr	x8, [sp, #8]
	ldr	x9, [sp]
	mov	w10, #48
	mul	x9, x9, x10
	add	x8, x8, x9
	stur	x8, [x29, #-8]
	b	LBB19_2
LBB19_2:
	ldur	x8, [x29, #-8]
	ldur	x9, [x29, #-32]
	str	x9, [sp, #32]
	str	x8, [sp, #40]
	ldr	x1, [sp, #32]
	ldr	x2, [sp, #40]
	add	x0, sp, #16
	bl	__ZN4core3fmt8builders9DebugList7entries17h9c0381e6c5c47f8bE
	bl	__ZN4core3fmt8builders9DebugList6finish17h113c11ea4e8abb88E
	.cfi_def_cfa wsp, 96
	ldp	x29, x30, [sp, #80]
	add	sp, sp, #96
	.cfi_def_cfa_offset 0
	.cfi_restore w30
	.cfi_restore w29
	ret
	.cfi_endproc

	.p2align	2
__ZN48_$LT$$u5b$T$u5d$$u20$as$u20$core..fmt..Debug$GT$3fmt17hd9b6460679eaffa7E:
	.cfi_startproc
	sub	sp, sp, #96
	.cfi_def_cfa_offset 96
	stp	x29, x30, [sp, #80]
	add	x29, sp, #80
	.cfi_def_cfa w29, 16
	.cfi_offset w30, -8
	.cfi_offset w29, -16
	str	x0, [sp, #8]
	str	x1, [sp]
	mov	x0, x2
	add	x8, sp, #16
	bl	__ZN4core3fmt9Formatter10debug_list17h0d0b1554eb22f7ccE
	ldr	x1, [sp]
	ldr	x0, [sp, #8]
	stur	x0, [x29, #-24]
	stur	x1, [x29, #-16]
	stur	x0, [x29, #-32]
	b	LBB20_1
LBB20_1:
	ldr	x8, [sp, #8]
	ldr	x9, [sp]
	add	x8, x8, x9, lsl #4
	stur	x8, [x29, #-8]
	b	LBB20_2
LBB20_2:
	ldur	x8, [x29, #-8]
	ldur	x9, [x29, #-32]
	str	x9, [sp, #32]
	str	x8, [sp, #40]
	ldr	x1, [sp, #32]
	ldr	x2, [sp, #40]
	add	x0, sp, #16
	bl	__ZN4core3fmt8builders9DebugList7entries17h481ed8b8c69f2ec0E
	bl	__ZN4core3fmt8builders9DebugList6finish17h113c11ea4e8abb88E
	.cfi_def_cfa wsp, 96
	ldp	x29, x30, [sp, #80]
	add	sp, sp, #96
	.cfi_def_cfa_offset 0
	.cfi_restore w30
	.cfi_restore w29
	ret
	.cfi_endproc

	.p2align	2
__ZN4core10intrinsics11write_bytes18precondition_check17hb8e92fd0efafaeb7E:
Lfunc_begin1:
	.cfi_startproc
	.cfi_personality 155, _rust_eh_personality
	.cfi_lsda 16, Lexception1
	sub	sp, sp, #32
	.cfi_def_cfa_offset 32
	stp	x29, x30, [sp, #16]
	add	x29, sp, #16
	.cfi_def_cfa w29, 16
	.cfi_offset w30, -8
	.cfi_offset w29, -16
Ltmp4:
	bl	__ZN4core10intrinsics23is_aligned_and_not_null17hb603c5b18fd12102E
	stur	w0, [x29, #-4]
Ltmp5:
	b	LBB21_2
LBB21_1:
Ltmp6:
	bl	__ZN4core9panicking19panic_cannot_unwind17h1836202834f564f7E
LBB21_2:
	ldur	w8, [x29, #-4]
	tbnz	w8, #0, LBB21_4
	b	LBB21_3
LBB21_3:
	adrp	x0, l___unnamed_3@PAGE
	add	x0, x0, l___unnamed_3@PAGEOFF
	mov	w8, #111
	mov	x1, x8
	bl	__ZN4core9panicking14panic_nounwind17h765f3648d339fa95E
LBB21_4:
	.cfi_def_cfa wsp, 32
	ldp	x29, x30, [sp, #16]
	add	sp, sp, #32
	.cfi_def_cfa_offset 0
	.cfi_restore w30
	.cfi_restore w29
	ret
Lfunc_end1:
	.cfi_endproc
	.section	__TEXT,__gcc_except_tab
	.p2align	2, 0x0
GCC_except_table21:
Lexception1:
	.byte	255
	.byte	155
	.uleb128 Lttbase0-Lttbaseref0
Lttbaseref0:
	.byte	1
	.uleb128 Lcst_end1-Lcst_begin1
Lcst_begin1:
	.uleb128 Ltmp4-Lfunc_begin1
	.uleb128 Ltmp5-Ltmp4
	.uleb128 Ltmp6-Lfunc_begin1
	.byte	1
Lcst_end1:
	.byte	127
	.byte	0
	.p2align	2, 0x0
Lttbase0:
	.byte	0
	.p2align	2, 0x0

	.section	__TEXT,__text,regular,pure_instructions
	.p2align	2
__ZN4core10intrinsics16retag_box_to_raw17h029517196ceba31fE:
	.cfi_startproc
	ret
	.cfi_endproc

	.p2align	2
__ZN4core10intrinsics16retag_box_to_raw17h2621a69217330d71E:
	.cfi_startproc
	ret
	.cfi_endproc

	.p2align	2
__ZN4core10intrinsics16retag_box_to_raw17h524749d3d092c407E:
	.cfi_startproc
	ret
	.cfi_endproc

	.p2align	2
__ZN4core10intrinsics16retag_box_to_raw17h5bee6c45725c9c82E:
	.cfi_startproc
	ret
	.cfi_endproc

	.p2align	2
__ZN4core10intrinsics16retag_box_to_raw17hc95473bcfbf489a7E:
	.cfi_startproc
	ret
	.cfi_endproc

	.p2align	2
__ZN4core10intrinsics16retag_box_to_raw17hf1c7cbc81a74151dE:
	.cfi_startproc
	ret
	.cfi_endproc

	.p2align	2
__ZN4core10intrinsics16retag_box_to_raw17hfe6dcf2a8466911aE:
	.cfi_startproc
	ret
	.cfi_endproc

	.p2align	2
__ZN4core10intrinsics17is_nonoverlapping7runtime17h5703f27a72fcacffE:
	.cfi_startproc
	sub	sp, sp, #80
	.cfi_def_cfa_offset 80
	stp	x29, x30, [sp, #64]
	add	x29, sp, #64
	.cfi_def_cfa w29, 16
	.cfi_offset w30, -8
	.cfi_offset w29, -16
	str	x0, [sp, #8]
	str	x1, [sp, #16]
	umulh	x8, x2, x3
	mul	x9, x2, x3
	str	x9, [sp, #24]
	subs	x8, x8, #0
	cset	w8, ne
	sturb	w8, [x29, #-1]
	ldurb	w8, [x29, #-1]
	tbnz	w8, #0, LBB29_2
	b	LBB29_1
LBB29_1:
	ldr	x8, [sp, #8]
	ldr	x9, [sp, #16]
	ldr	x10, [sp, #24]
	str	x10, [sp, #40]
	mov	w10, #1
	str	x10, [sp, #32]
	ldr	x10, [sp, #40]
	str	x10, [sp]
	subs	x8, x8, x9
	b.lo	LBB29_4
	b	LBB29_3
LBB29_2:
	adrp	x0, l___unnamed_4@PAGE
	add	x0, x0, l___unnamed_4@PAGEOFF
	mov	w8, #61
	mov	x1, x8
	bl	__ZN4core9panicking14panic_nounwind17h765f3648d339fa95E
LBB29_3:
	ldr	x8, [sp, #8]
	ldr	x9, [sp, #16]
	subs	x8, x8, x9
	stur	x8, [x29, #-16]
	b	LBB29_5
LBB29_4:
	ldr	x8, [sp, #16]
	ldr	x9, [sp, #8]
	subs	x8, x8, x9
	stur	x8, [x29, #-16]
	b	LBB29_5
LBB29_5:
	ldr	x9, [sp]
	ldur	x8, [x29, #-16]
	subs	x8, x8, x9
	cset	w0, hs
	.cfi_def_cfa wsp, 80
	ldp	x29, x30, [sp, #64]
	add	sp, sp, #80
	.cfi_def_cfa_offset 0
	.cfi_restore w30
	.cfi_restore w29
	ret
	.cfi_endproc

	.p2align	2
__ZN4core10intrinsics19copy_nonoverlapping18precondition_check17h9c1c48ac54a9746cE:
Lfunc_begin2:
	.cfi_startproc
	.cfi_personality 155, _rust_eh_personality
	.cfi_lsda 16, Lexception2
	sub	sp, sp, #80
	.cfi_def_cfa_offset 80
	stp	x29, x30, [sp, #64]
	add	x29, sp, #64
	.cfi_def_cfa w29, 16
	.cfi_offset w30, -8
	.cfi_offset w29, -16
	str	x0, [sp, #16]
	str	x1, [sp, #24]
	str	x2, [sp, #32]
	mov	x1, x3
	stur	x1, [x29, #-24]
	stur	x4, [x29, #-16]
Ltmp7:
	bl	__ZN4core10intrinsics23is_aligned_and_not_null17hb603c5b18fd12102E
	stur	w0, [x29, #-4]
Ltmp8:
	b	LBB30_2
LBB30_1:
Ltmp13:
	bl	__ZN4core9panicking19panic_cannot_unwind17h1836202834f564f7E
LBB30_2:
	ldur	w8, [x29, #-4]
	tbnz	w8, #0, LBB30_4
	b	LBB30_3
LBB30_3:
	adrp	x0, l___unnamed_5@PAGE
	add	x0, x0, l___unnamed_5@PAGEOFF
	mov	w8, #166
	mov	x1, x8
	bl	__ZN4core9panicking14panic_nounwind17h765f3648d339fa95E
LBB30_4:
Ltmp9:
	ldur	x1, [x29, #-24]
	ldr	x0, [sp, #24]
	bl	__ZN4core10intrinsics23is_aligned_and_not_null17hb603c5b18fd12102E
	str	w0, [sp, #12]
Ltmp10:
	b	LBB30_5
LBB30_5:
	ldr	w8, [sp, #12]
	tbz	w8, #0, LBB30_3
	b	LBB30_6
LBB30_6:
Ltmp11:
	ldur	x3, [x29, #-16]
	ldr	x2, [sp, #32]
	ldr	x1, [sp, #24]
	ldr	x0, [sp, #16]
	bl	__ZN4core10intrinsics17is_nonoverlapping7runtime17h5703f27a72fcacffE
	str	w0, [sp, #8]
Ltmp12:
	b	LBB30_7
LBB30_7:
	ldr	w8, [sp, #8]
	tbnz	w8, #0, LBB30_9
	b	LBB30_8
LBB30_8:
	b	LBB30_3
LBB30_9:
	.cfi_def_cfa wsp, 80
	ldp	x29, x30, [sp, #64]
	add	sp, sp, #80
	.cfi_def_cfa_offset 0
	.cfi_restore w30
	.cfi_restore w29
	ret
Lfunc_end2:
	.cfi_endproc
	.section	__TEXT,__gcc_except_tab
	.p2align	2, 0x0
GCC_except_table30:
Lexception2:
	.byte	255
	.byte	155
	.uleb128 Lttbase1-Lttbaseref1
Lttbaseref1:
	.byte	1
	.uleb128 Lcst_end2-Lcst_begin2
Lcst_begin2:
	.uleb128 Ltmp7-Lfunc_begin2
	.uleb128 Ltmp12-Ltmp7
	.uleb128 Ltmp13-Lfunc_begin2
	.byte	1
Lcst_end2:
	.byte	127
	.byte	0
	.p2align	2, 0x0
Lttbase1:
	.byte	0
	.p2align	2, 0x0

	.section	__TEXT,__text,regular,pure_instructions
	.p2align	2
__ZN4core10intrinsics23is_aligned_and_not_null17hb603c5b18fd12102E:
	.cfi_startproc
	sub	sp, sp, #96
	.cfi_def_cfa_offset 96
	stp	x29, x30, [sp, #80]
	add	x29, sp, #80
	.cfi_def_cfa w29, 16
	.cfi_offset w30, -8
	.cfi_offset w29, -16
	.cfi_remember_state
	str	x0, [sp]
	str	x1, [sp, #8]
	cbnz	x0, LBB31_2
	b	LBB31_1
LBB31_1:
	strb	wzr, [sp, #23]
	b	LBB31_3
LBB31_2:
	ldr	x8, [sp, #8]
	fmov	d0, x8
	cnt.8b	v0, v0
	uaddlv.8b	h0, v0
	mov.s	w8, v0[0]
	stur	x8, [x29, #-8]
	ldur	x8, [x29, #-8]
	subs	w8, w8, #1
	b.eq	LBB31_4
	b	LBB31_5
LBB31_3:
	ldrb	w8, [sp, #23]
	and	w0, w8, #0x1
	.cfi_def_cfa wsp, 96
	ldp	x29, x30, [sp, #80]
	add	sp, sp, #96
	.cfi_def_cfa_offset 0
	.cfi_restore w30
	.cfi_restore w29
	ret
LBB31_4:
	.cfi_restore_state
	ldr	x8, [sp]
	ldr	x9, [sp, #8]
	subs	x9, x9, #1
	ands	x8, x8, x9
	cset	w8, eq
	strb	w8, [sp, #23]
	b	LBB31_3
LBB31_5:
	add	x0, sp, #24
	adrp	x8, l___unnamed_6@PAGE
	add	x8, x8, l___unnamed_6@PAGEOFF
	str	x8, [sp, #24]
	mov	w8, #1
	str	x8, [sp, #32]
	adrp	x9, l___unnamed_7@PAGE
	adrp	x8, l___unnamed_7@PAGE
	add	x8, x8, l___unnamed_7@PAGEOFF
	ldr	x9, [x9, l___unnamed_7@PAGEOFF]
	ldr	x8, [x8, #8]
	str	x9, [sp, #56]
	str	x8, [sp, #64]
	adrp	x8, l___unnamed_8@PAGE
	add	x8, x8, l___unnamed_8@PAGEOFF
	str	x8, [sp, #40]
	str	xzr, [sp, #48]
	adrp	x1, l___unnamed_9@PAGE
	add	x1, x1, l___unnamed_9@PAGEOFF
	bl	__ZN4core9panicking9panic_fmt17h98bbf7bdf4994454E
	.cfi_endproc

	.p2align	2
__ZN4core10intrinsics23is_val_statically_known17hba828424c25d5449E:
	.cfi_startproc
	mov	w8, #0
	and	w0, w8, #0x1
	ret
	.cfi_endproc

	.p2align	2
__ZN4core10intrinsics8unlikely17h9e48c00f479c8a13E:
	.cfi_startproc
	ret
	.cfi_endproc

	.p2align	2
__ZN4core3cmp5impls50_$LT$impl$u20$core..cmp..Ord$u20$for$u20$usize$GT$3cmp17hd42860831d83f422E:
	.cfi_startproc
	sub	sp, sp, #32
	.cfi_def_cfa_offset 32
	ldr	x8, [x0]
	str	x8, [sp, #8]
	ldr	x9, [x1]
	str	x9, [sp, #16]
	subs	x8, x8, x9
	b.lo	LBB34_2
	b	LBB34_1
LBB34_1:
	ldr	x8, [sp, #8]
	ldr	x9, [sp, #16]
	subs	x8, x8, x9
	b.eq	LBB34_4
	b	LBB34_3
LBB34_2:
	mov	w8, #255
	strb	w8, [sp, #31]
	b	LBB34_6
LBB34_3:
	mov	w8, #1
	strb	w8, [sp, #31]
	b	LBB34_5
LBB34_4:
	strb	wzr, [sp, #31]
	b	LBB34_5
LBB34_5:
	b	LBB34_6
LBB34_6:
	ldrb	w0, [sp, #31]
	add	sp, sp, #32
	.cfi_def_cfa_offset 0
	ret
	.cfi_endproc

	.p2align	2
__ZN4core3cmp5impls70_$LT$impl$u20$core..cmp..PartialOrd$LT$$RF$B$GT$$u20$for$u20$$RF$A$GT$2lt17h888854cfd1fe6f76E:
	.cfi_startproc
	ldr	x8, [x0]
	ldr	x9, [x1]
	ldr	x8, [x8]
	ldr	x9, [x9]
	subs	x8, x8, x9
	cset	w0, lt
	ret
	.cfi_endproc

	.p2align	2
__ZN4core3cmp5impls70_$LT$impl$u20$core..cmp..PartialOrd$LT$$RF$B$GT$$u20$for$u20$$RF$A$GT$2lt17h9bf4e6088cfa648cE:
	.cfi_startproc
	ldr	x8, [x0]
	ldr	x9, [x1]
	ldr	w8, [x8]
	ldr	w9, [x9]
	subs	w8, w8, w9
	cset	w0, lt
	ret
	.cfi_endproc

	.p2align	2
__ZN4core3cmp6max_by17h43b9b5ac048f07d6E:
Lfunc_begin3:
	.cfi_startproc
	.cfi_personality 155, _rust_eh_personality
	.cfi_lsda 16, Lexception3
	sub	sp, sp, #96
	.cfi_def_cfa_offset 96
	stp	x29, x30, [sp, #80]
	add	x29, sp, #80
	.cfi_def_cfa w29, 16
	.cfi_offset w30, -8
	.cfi_offset w29, -16
	.cfi_remember_state
	add	x9, sp, #8
	str	x0, [sp, #8]
	add	x8, sp, #16
	str	x1, [sp, #16]
	mov	w10, #1
	sturb	w10, [x29, #-17]
	str	x9, [sp, #40]
	str	x8, [sp, #48]
	ldr	x0, [sp, #40]
	ldr	x1, [sp, #48]
Ltmp15:
	bl	__ZN4core3ops8function6FnOnce9call_once17h2b29b13d06e50de0E
	str	w0, [sp, #4]
Ltmp16:
	b	LBB37_3
LBB37_1:
	b	LBB37_10
LBB37_2:
Ltmp17:
	stur	x0, [x29, #-16]
	mov	x8, x1
	stur	w8, [x29, #-8]
	b	LBB37_1
LBB37_3:
	ldr	w8, [sp, #4]
	strb	w8, [sp, #39]
	ldrb	w8, [sp, #39]
	add	w8, w8, #1
	and	w8, w8, #0xff
	subs	w8, w8, #1
	b.ls	LBB37_6
	b	LBB37_4
LBB37_4:
	b	LBB37_7
LBB37_6:
	ldr	x8, [sp, #16]
	str	x8, [sp, #24]
	ldurb	w8, [x29, #-17]
	tbnz	w8, #0, LBB37_9
	b	LBB37_8
LBB37_7:
	sturb	wzr, [x29, #-17]
	ldr	x8, [sp, #8]
	str	x8, [sp, #24]
	b	LBB37_8
LBB37_8:
	ldr	x0, [sp, #24]
	.cfi_def_cfa wsp, 96
	ldp	x29, x30, [sp, #80]
	add	sp, sp, #96
	.cfi_def_cfa_offset 0
	.cfi_restore w30
	.cfi_restore w29
	ret
LBB37_9:
	.cfi_restore_state
	b	LBB37_8
LBB37_10:
	ldurb	w8, [x29, #-17]
	tbnz	w8, #0, LBB37_12
	b	LBB37_11
LBB37_11:
	ldur	x0, [x29, #-16]
	bl	__Unwind_Resume
LBB37_12:
	b	LBB37_11
Lfunc_end3:
	.cfi_endproc
	.section	__TEXT,__gcc_except_tab
	.p2align	2, 0x0
GCC_except_table37:
Lexception3:
	.byte	255
	.byte	255
	.byte	1
	.uleb128 Lcst_end3-Lcst_begin3
Lcst_begin3:
	.uleb128 Ltmp15-Lfunc_begin3
	.uleb128 Ltmp16-Ltmp15
	.uleb128 Ltmp17-Lfunc_begin3
	.byte	0
	.uleb128 Ltmp16-Lfunc_begin3
	.uleb128 Lfunc_end3-Ltmp16
	.byte	0
	.byte	0
Lcst_end3:
	.p2align	2, 0x0

	.section	__TEXT,__text,regular,pure_instructions
	.p2align	2
__ZN4core3fmt3num49_$LT$impl$u20$core..fmt..Debug$u20$for$u20$u8$GT$3fmt17h9c2b11a1d0e71c2dE:
	.cfi_startproc
	sub	sp, sp, #48
	.cfi_def_cfa_offset 48
	stp	x29, x30, [sp, #32]
	add	x29, sp, #32
	.cfi_def_cfa w29, 16
	.cfi_offset w30, -8
	.cfi_offset w29, -16
	str	x0, [sp, #8]
	str	x1, [sp, #16]
	ldr	w8, [x1, #52]
	tbnz	w8, #4, LBB38_2
	b	LBB38_1
LBB38_1:
	ldr	x8, [sp, #16]
	ldr	w8, [x8, #52]
	tbz	w8, #5, LBB38_3
	b	LBB38_4
LBB38_2:
	ldr	x1, [sp, #16]
	ldr	x0, [sp, #8]
	bl	__ZN4core3fmt3num52_$LT$impl$u20$core..fmt..LowerHex$u20$for$u20$u8$GT$3fmt17hf80fea428aa49224E
	sturb	w0, [x29, #-1]
	b	LBB38_6
LBB38_3:
	ldr	x1, [sp, #16]
	ldr	x0, [sp, #8]
	bl	__ZN4core3fmt3num3imp51_$LT$impl$u20$core..fmt..Display$u20$for$u20$u8$GT$3fmt17h4b16b13010ac8fa6E
	sturb	w0, [x29, #-1]
	b	LBB38_5
LBB38_4:
	ldr	x1, [sp, #16]
	ldr	x0, [sp, #8]
	bl	__ZN4core3fmt3num52_$LT$impl$u20$core..fmt..UpperHex$u20$for$u20$u8$GT$3fmt17h85bbca09a1b509baE
	sturb	w0, [x29, #-1]
	b	LBB38_5
LBB38_5:
	b	LBB38_6
LBB38_6:
	ldurb	w8, [x29, #-1]
	and	w0, w8, #0x1
	.cfi_def_cfa wsp, 48
	ldp	x29, x30, [sp, #32]
	add	sp, sp, #48
	.cfi_def_cfa_offset 0
	.cfi_restore w30
	.cfi_restore w29
	ret
	.cfi_endproc

	.p2align	2
__ZN4core3fmt3num50_$LT$impl$u20$core..fmt..Debug$u20$for$u20$i32$GT$3fmt17hb20366c675940d9bE:
	.cfi_startproc
	sub	sp, sp, #48
	.cfi_def_cfa_offset 48
	stp	x29, x30, [sp, #32]
	add	x29, sp, #32
	.cfi_def_cfa w29, 16
	.cfi_offset w30, -8
	.cfi_offset w29, -16
	str	x0, [sp, #8]
	str	x1, [sp, #16]
	ldr	w8, [x1, #52]
	tbnz	w8, #4, LBB39_2
	b	LBB39_1
LBB39_1:
	ldr	x8, [sp, #16]
	ldr	w8, [x8, #52]
	tbz	w8, #5, LBB39_3
	b	LBB39_4
LBB39_2:
	ldr	x1, [sp, #16]
	ldr	x0, [sp, #8]
	bl	__ZN4core3fmt3num53_$LT$impl$u20$core..fmt..LowerHex$u20$for$u20$i32$GT$3fmt17h126d218a21b155cdE
	sturb	w0, [x29, #-1]
	b	LBB39_6
LBB39_3:
	ldr	x1, [sp, #16]
	ldr	x0, [sp, #8]
	bl	__ZN4core3fmt3num3imp52_$LT$impl$u20$core..fmt..Display$u20$for$u20$i32$GT$3fmt17h879cd70b5b7c546eE
	sturb	w0, [x29, #-1]
	b	LBB39_5
LBB39_4:
	ldr	x1, [sp, #16]
	ldr	x0, [sp, #8]
	bl	__ZN4core3fmt3num53_$LT$impl$u20$core..fmt..UpperHex$u20$for$u20$i32$GT$3fmt17h84061024638f0cdeE
	sturb	w0, [x29, #-1]
	b	LBB39_5
LBB39_5:
	b	LBB39_6
LBB39_6:
	ldurb	w8, [x29, #-1]
	and	w0, w8, #0x1
	.cfi_def_cfa wsp, 48
	ldp	x29, x30, [sp, #32]
	add	sp, sp, #48
	.cfi_def_cfa_offset 0
	.cfi_restore w30
	.cfi_restore w29
	ret
	.cfi_endproc

	.p2align	2
__ZN4core3fmt3num50_$LT$impl$u20$core..fmt..Debug$u20$for$u20$i64$GT$3fmt17h70e019a2bdff87f3E:
	.cfi_startproc
	sub	sp, sp, #48
	.cfi_def_cfa_offset 48
	stp	x29, x30, [sp, #32]
	add	x29, sp, #32
	.cfi_def_cfa w29, 16
	.cfi_offset w30, -8
	.cfi_offset w29, -16
	str	x0, [sp, #8]
	str	x1, [sp, #16]
	ldr	w8, [x1, #52]
	tbnz	w8, #4, LBB40_2
	b	LBB40_1
LBB40_1:
	ldr	x8, [sp, #16]
	ldr	w8, [x8, #52]
	tbz	w8, #5, LBB40_3
	b	LBB40_4
LBB40_2:
	ldr	x1, [sp, #16]
	ldr	x0, [sp, #8]
	bl	__ZN4core3fmt3num53_$LT$impl$u20$core..fmt..LowerHex$u20$for$u20$i64$GT$3fmt17h477ed96f070bbb30E
	sturb	w0, [x29, #-1]
	b	LBB40_6
LBB40_3:
	ldr	x1, [sp, #16]
	ldr	x0, [sp, #8]
	bl	__ZN4core3fmt3num3imp52_$LT$impl$u20$core..fmt..Display$u20$for$u20$i64$GT$3fmt17h46b45c6d077fcbc6E
	sturb	w0, [x29, #-1]
	b	LBB40_5
LBB40_4:
	ldr	x1, [sp, #16]
	ldr	x0, [sp, #8]
	bl	__ZN4core3fmt3num53_$LT$impl$u20$core..fmt..UpperHex$u20$for$u20$i64$GT$3fmt17h9fa62ad70354a71dE
	sturb	w0, [x29, #-1]
	b	LBB40_5
LBB40_5:
	b	LBB40_6
LBB40_6:
	ldurb	w8, [x29, #-1]
	and	w0, w8, #0x1
	.cfi_def_cfa wsp, 48
	ldp	x29, x30, [sp, #32]
	add	sp, sp, #48
	.cfi_def_cfa_offset 0
	.cfi_restore w30
	.cfi_restore w29
	ret
	.cfi_endproc

	.p2align	2
__ZN4core3fmt3num52_$LT$impl$u20$core..fmt..Debug$u20$for$u20$usize$GT$3fmt17h7033f97758f45be0E:
	.cfi_startproc
	sub	sp, sp, #48
	.cfi_def_cfa_offset 48
	stp	x29, x30, [sp, #32]
	add	x29, sp, #32
	.cfi_def_cfa w29, 16
	.cfi_offset w30, -8
	.cfi_offset w29, -16
	str	x0, [sp, #8]
	str	x1, [sp, #16]
	ldr	w8, [x1, #52]
	tbnz	w8, #4, LBB41_2
	b	LBB41_1
LBB41_1:
	ldr	x8, [sp, #16]
	ldr	w8, [x8, #52]
	tbz	w8, #5, LBB41_3
	b	LBB41_4
LBB41_2:
	ldr	x1, [sp, #16]
	ldr	x0, [sp, #8]
	bl	__ZN4core3fmt3num55_$LT$impl$u20$core..fmt..LowerHex$u20$for$u20$usize$GT$3fmt17hffeae19598650363E
	sturb	w0, [x29, #-1]
	b	LBB41_6
LBB41_3:
	ldr	x1, [sp, #16]
	ldr	x0, [sp, #8]
	bl	__ZN4core3fmt3num3imp54_$LT$impl$u20$core..fmt..Display$u20$for$u20$usize$GT$3fmt17h8fb7f92a2e17f7bbE
	sturb	w0, [x29, #-1]
	b	LBB41_5
LBB41_4:
	ldr	x1, [sp, #16]
	ldr	x0, [sp, #8]
	bl	__ZN4core3fmt3num55_$LT$impl$u20$core..fmt..UpperHex$u20$for$u20$usize$GT$3fmt17hc40a7e3ed771aec9E
	sturb	w0, [x29, #-1]
	b	LBB41_5
LBB41_5:
	b	LBB41_6
LBB41_6:
	ldurb	w8, [x29, #-1]
	and	w0, w8, #0x1
	.cfi_def_cfa wsp, 48
	ldp	x29, x30, [sp, #32]
	add	sp, sp, #48
	.cfi_def_cfa_offset 0
	.cfi_restore w30
	.cfi_restore w29
	ret
	.cfi_endproc

	.p2align	2
__ZN4core3fmt8builders9DebugList7entries17h131b3d847cf32dfbE:
Lfunc_begin4:
	.cfi_startproc
	.cfi_personality 155, _rust_eh_personality
	.cfi_lsda 16, Lexception4
	sub	sp, sp, #80
	.cfi_def_cfa_offset 80
	stp	x29, x30, [sp, #64]
	add	x29, sp, #64
	.cfi_def_cfa w29, 16
	.cfi_offset w30, -8
	.cfi_offset w29, -16
	.cfi_remember_state
	str	x0, [sp, #8]
	mov	x0, x1
	mov	x1, x2
	bl	__ZN63_$LT$I$u20$as$u20$core..iter..traits..collect..IntoIterator$GT$9into_iter17h2a5963f7401b2db4E
	str	x0, [sp, #16]
	str	x1, [sp, #24]
	b	LBB42_1
LBB42_1:
Ltmp18:
	add	x0, sp, #16
	bl	__ZN91_$LT$core..slice..iter..Iter$LT$T$GT$$u20$as$u20$core..iter..traits..iterator..Iterator$GT$4next17h478cb3728ccf0c3cE
	str	x0, [sp]
Ltmp19:
	b	LBB42_4
LBB42_2:
	ldur	x0, [x29, #-16]
	bl	__Unwind_Resume
LBB42_3:
Ltmp20:
	stur	x0, [x29, #-16]
	mov	x8, x1
	stur	w8, [x29, #-8]
	b	LBB42_2
LBB42_4:
	ldr	x8, [sp]
	str	x8, [sp, #32]
	ldr	x8, [sp, #32]
	subs	x8, x8, #0
	cset	x8, ne
	cbnz	x8, LBB42_6
	b	LBB42_5
LBB42_5:
	ldr	x0, [sp, #8]
	.cfi_def_cfa wsp, 80
	ldp	x29, x30, [sp, #64]
	add	sp, sp, #80
	.cfi_def_cfa_offset 0
	.cfi_restore w30
	.cfi_restore w29
	ret
LBB42_6:
	.cfi_restore_state
	ldr	x0, [sp, #8]
	ldr	x8, [sp, #32]
	sub	x1, x29, #24
	stur	x8, [x29, #-24]
Ltmp21:
	adrp	x2, l___unnamed_10@PAGE
	add	x2, x2, l___unnamed_10@PAGEOFF
	bl	__ZN4core3fmt8builders9DebugList5entry17hc73dd476d1443770E
Ltmp22:
	b	LBB42_9
LBB42_7:
	b	LBB42_2
LBB42_8:
Ltmp23:
	stur	x0, [x29, #-16]
	mov	x8, x1
	stur	w8, [x29, #-8]
	b	LBB42_7
LBB42_9:
	b	LBB42_10
LBB42_10:
	b	LBB42_1
Lfunc_end4:
	.cfi_endproc
	.section	__TEXT,__gcc_except_tab
	.p2align	2, 0x0
GCC_except_table42:
Lexception4:
	.byte	255
	.byte	255
	.byte	1
	.uleb128 Lcst_end4-Lcst_begin4
Lcst_begin4:
	.uleb128 Lfunc_begin4-Lfunc_begin4
	.uleb128 Ltmp18-Lfunc_begin4
	.byte	0
	.byte	0
	.uleb128 Ltmp18-Lfunc_begin4
	.uleb128 Ltmp19-Ltmp18
	.uleb128 Ltmp20-Lfunc_begin4
	.byte	0
	.uleb128 Ltmp19-Lfunc_begin4
	.uleb128 Ltmp21-Ltmp19
	.byte	0
	.byte	0
	.uleb128 Ltmp21-Lfunc_begin4
	.uleb128 Ltmp22-Ltmp21
	.uleb128 Ltmp23-Lfunc_begin4
	.byte	0
Lcst_end4:
	.p2align	2, 0x0

	.section	__TEXT,__text,regular,pure_instructions
	.p2align	2
__ZN4core3fmt8builders9DebugList7entries17h481ed8b8c69f2ec0E:
Lfunc_begin5:
	.cfi_startproc
	.cfi_personality 155, _rust_eh_personality
	.cfi_lsda 16, Lexception5
	sub	sp, sp, #80
	.cfi_def_cfa_offset 80
	stp	x29, x30, [sp, #64]
	add	x29, sp, #64
	.cfi_def_cfa w29, 16
	.cfi_offset w30, -8
	.cfi_offset w29, -16
	.cfi_remember_state
	str	x0, [sp, #8]
	mov	x0, x1
	mov	x1, x2
	bl	__ZN63_$LT$I$u20$as$u20$core..iter..traits..collect..IntoIterator$GT$9into_iter17h7627f43ee7cd2253E
	str	x0, [sp, #16]
	str	x1, [sp, #24]
	b	LBB43_1
LBB43_1:
Ltmp24:
	add	x0, sp, #16
	bl	__ZN91_$LT$core..slice..iter..Iter$LT$T$GT$$u20$as$u20$core..iter..traits..iterator..Iterator$GT$4next17hf0f48a1916b92d8eE
	str	x0, [sp]
Ltmp25:
	b	LBB43_4
LBB43_2:
	ldur	x0, [x29, #-16]
	bl	__Unwind_Resume
LBB43_3:
Ltmp26:
	stur	x0, [x29, #-16]
	mov	x8, x1
	stur	w8, [x29, #-8]
	b	LBB43_2
LBB43_4:
	ldr	x8, [sp]
	str	x8, [sp, #32]
	ldr	x8, [sp, #32]
	subs	x8, x8, #0
	cset	x8, ne
	cbnz	x8, LBB43_6
	b	LBB43_5
LBB43_5:
	ldr	x0, [sp, #8]
	.cfi_def_cfa wsp, 80
	ldp	x29, x30, [sp, #64]
	add	sp, sp, #80
	.cfi_def_cfa_offset 0
	.cfi_restore w30
	.cfi_restore w29
	ret
LBB43_6:
	.cfi_restore_state
	ldr	x0, [sp, #8]
	ldr	x8, [sp, #32]
	sub	x1, x29, #24
	stur	x8, [x29, #-24]
Ltmp27:
	adrp	x2, l___unnamed_11@PAGE
	add	x2, x2, l___unnamed_11@PAGEOFF
	bl	__ZN4core3fmt8builders9DebugList5entry17hc73dd476d1443770E
Ltmp28:
	b	LBB43_9
LBB43_7:
	b	LBB43_2
LBB43_8:
Ltmp29:
	stur	x0, [x29, #-16]
	mov	x8, x1
	stur	w8, [x29, #-8]
	b	LBB43_7
LBB43_9:
	b	LBB43_10
LBB43_10:
	b	LBB43_1
Lfunc_end5:
	.cfi_endproc
	.section	__TEXT,__gcc_except_tab
	.p2align	2, 0x0
GCC_except_table43:
Lexception5:
	.byte	255
	.byte	255
	.byte	1
	.uleb128 Lcst_end5-Lcst_begin5
Lcst_begin5:
	.uleb128 Lfunc_begin5-Lfunc_begin5
	.uleb128 Ltmp24-Lfunc_begin5
	.byte	0
	.byte	0
	.uleb128 Ltmp24-Lfunc_begin5
	.uleb128 Ltmp25-Ltmp24
	.uleb128 Ltmp26-Lfunc_begin5
	.byte	0
	.uleb128 Ltmp25-Lfunc_begin5
	.uleb128 Ltmp27-Ltmp25
	.byte	0
	.byte	0
	.uleb128 Ltmp27-Lfunc_begin5
	.uleb128 Ltmp28-Ltmp27
	.uleb128 Ltmp29-Lfunc_begin5
	.byte	0
Lcst_end5:
	.p2align	2, 0x0

	.section	__TEXT,__text,regular,pure_instructions
	.p2align	2
__ZN4core3fmt8builders9DebugList7entries17h9c0381e6c5c47f8bE:
Lfunc_begin6:
	.cfi_startproc
	.cfi_personality 155, _rust_eh_personality
	.cfi_lsda 16, Lexception6
	sub	sp, sp, #80
	.cfi_def_cfa_offset 80
	stp	x29, x30, [sp, #64]
	add	x29, sp, #64
	.cfi_def_cfa w29, 16
	.cfi_offset w30, -8
	.cfi_offset w29, -16
	.cfi_remember_state
	str	x0, [sp, #8]
	mov	x0, x1
	mov	x1, x2
	bl	__ZN63_$LT$I$u20$as$u20$core..iter..traits..collect..IntoIterator$GT$9into_iter17hc70e992a18f362a5E
	str	x0, [sp, #16]
	str	x1, [sp, #24]
	b	LBB44_1
LBB44_1:
Ltmp30:
	add	x0, sp, #16
	bl	__ZN91_$LT$core..slice..iter..Iter$LT$T$GT$$u20$as$u20$core..iter..traits..iterator..Iterator$GT$4next17h8db6a8588b72297cE
	str	x0, [sp]
Ltmp31:
	b	LBB44_4
LBB44_2:
	ldur	x0, [x29, #-16]
	bl	__Unwind_Resume
LBB44_3:
Ltmp32:
	stur	x0, [x29, #-16]
	mov	x8, x1
	stur	w8, [x29, #-8]
	b	LBB44_2
LBB44_4:
	ldr	x8, [sp]
	str	x8, [sp, #32]
	ldr	x8, [sp, #32]
	subs	x8, x8, #0
	cset	x8, ne
	cbnz	x8, LBB44_6
	b	LBB44_5
LBB44_5:
	ldr	x0, [sp, #8]
	.cfi_def_cfa wsp, 80
	ldp	x29, x30, [sp, #64]
	add	sp, sp, #80
	.cfi_def_cfa_offset 0
	.cfi_restore w30
	.cfi_restore w29
	ret
LBB44_6:
	.cfi_restore_state
	ldr	x0, [sp, #8]
	ldr	x8, [sp, #32]
	sub	x1, x29, #24
	stur	x8, [x29, #-24]
Ltmp33:
	adrp	x2, l___unnamed_12@PAGE
	add	x2, x2, l___unnamed_12@PAGEOFF
	bl	__ZN4core3fmt8builders9DebugList5entry17hc73dd476d1443770E
Ltmp34:
	b	LBB44_9
LBB44_7:
	b	LBB44_2
LBB44_8:
Ltmp35:
	stur	x0, [x29, #-16]
	mov	x8, x1
	stur	w8, [x29, #-8]
	b	LBB44_7
LBB44_9:
	b	LBB44_10
LBB44_10:
	b	LBB44_1
Lfunc_end6:
	.cfi_endproc
	.section	__TEXT,__gcc_except_tab
	.p2align	2, 0x0
GCC_except_table44:
Lexception6:
	.byte	255
	.byte	255
	.byte	1
	.uleb128 Lcst_end6-Lcst_begin6
Lcst_begin6:
	.uleb128 Lfunc_begin6-Lfunc_begin6
	.uleb128 Ltmp30-Lfunc_begin6
	.byte	0
	.byte	0
	.uleb128 Ltmp30-Lfunc_begin6
	.uleb128 Ltmp31-Ltmp30
	.uleb128 Ltmp32-Lfunc_begin6
	.byte	0
	.uleb128 Ltmp31-Lfunc_begin6
	.uleb128 Ltmp33-Ltmp31
	.byte	0
	.byte	0
	.uleb128 Ltmp33-Lfunc_begin6
	.uleb128 Ltmp34-Ltmp33
	.uleb128 Ltmp35-Lfunc_begin6
	.byte	0
Lcst_end6:
	.p2align	2, 0x0

	.section	__TEXT,__text,regular,pure_instructions
	.p2align	2
__ZN4core3fmt9Arguments12as_const_str17h866d4e7a8cc409b5E:
	.cfi_startproc
	sub	sp, sp, #64
	.cfi_def_cfa_offset 64
	ldr	x8, [x0]
	str	x8, [sp]
	ldr	x8, [x0, #8]
	str	x8, [sp, #8]
	ldr	x9, [x0, #24]
	str	x9, [sp, #16]
	cbnz	x8, LBB45_2
	b	LBB45_1
LBB45_1:
	ldr	x8, [sp, #16]
	cbz	x8, LBB45_3
	b	LBB45_4
LBB45_2:
	ldr	x8, [sp, #8]
	subs	x8, x8, #1
	b.eq	LBB45_6
	b	LBB45_4
LBB45_3:
	adrp	x8, l___unnamed_8@PAGE
	add	x8, x8, l___unnamed_8@PAGEOFF
	str	x8, [sp, #40]
	str	xzr, [sp, #48]
	b	LBB45_5
LBB45_4:
	adrp	x9, l___unnamed_7@PAGE
	adrp	x8, l___unnamed_7@PAGE
	add	x8, x8, l___unnamed_7@PAGEOFF
	ldr	x9, [x9, l___unnamed_7@PAGEOFF]
	ldr	x8, [x8, #8]
	str	x9, [sp, #40]
	str	x8, [sp, #48]
	b	LBB45_5
LBB45_5:
	ldr	x8, [sp, #40]
	subs	x8, x8, #0
	cset	x8, ne
	subs	x8, x8, #1
	b.eq	LBB45_8
	b	LBB45_9
LBB45_6:
	ldr	x8, [sp, #16]
	cbnz	x8, LBB45_4
	b	LBB45_7
LBB45_7:
	ldr	x8, [sp]
	ldr	x9, [x8]
	ldr	x8, [x8, #8]
	str	x9, [sp, #40]
	str	x8, [sp, #48]
	b	LBB45_5
LBB45_8:
	mov	w8, #1
	strb	w8, [sp, #62]
	b	LBB45_10
LBB45_9:
	strb	wzr, [sp, #62]
	b	LBB45_10
LBB45_10:
	strb	wzr, [sp, #63]
	ldrb	w8, [sp, #63]
	tbnz	w8, #0, LBB45_12
	b	LBB45_11
LBB45_11:
	adrp	x9, l___unnamed_7@PAGE
	adrp	x8, l___unnamed_7@PAGE
	add	x8, x8, l___unnamed_7@PAGEOFF
	ldr	x9, [x9, l___unnamed_7@PAGEOFF]
	ldr	x8, [x8, #8]
	str	x9, [sp, #24]
	str	x8, [sp, #32]
	b	LBB45_13
LBB45_12:
	ldr	x9, [sp, #40]
	ldr	x8, [sp, #48]
	str	x9, [sp, #24]
	str	x8, [sp, #32]
	b	LBB45_13
LBB45_13:
	ldr	x0, [sp, #24]
	ldr	x1, [sp, #32]
	add	sp, sp, #64
	.cfi_def_cfa_offset 0
	ret
	.cfi_endproc

	.p2align	2
__ZN4core3fmt9Arguments16new_v1_formatted17he08a92c810cac804E:
	.cfi_startproc
	sub	sp, sp, #16
	.cfi_def_cfa_offset 16
	str	x4, [sp]
	str	x5, [sp, #8]
	str	x0, [x8]
	str	x1, [x8, #8]
	ldr	x10, [sp]
	ldr	x9, [sp, #8]
	str	x10, [x8, #32]
	str	x9, [x8, #40]
	str	x2, [x8, #16]
	str	x3, [x8, #24]
	add	sp, sp, #16
	.cfi_def_cfa_offset 0
	ret
	.cfi_endproc

	.p2align	2
__ZN4core3fmt9Arguments6new_v117h619f9bb2db3983b4E:
	.cfi_startproc
	sub	sp, sp, #112
	.cfi_def_cfa_offset 112
	stp	x29, x30, [sp, #96]
	add	x29, sp, #96
	.cfi_def_cfa w29, 16
	.cfi_offset w30, -8
	.cfi_offset w29, -16
	.cfi_remember_state
	str	x8, [sp, #8]
	str	x0, [sp, #16]
	str	x1, [sp, #24]
	str	x2, [sp, #32]
	str	x3, [sp, #40]
	subs	x8, x1, x3
	b.lo	LBB47_2
	b	LBB47_1
LBB47_1:
	ldr	x8, [sp, #24]
	ldr	x9, [sp, #40]
	add	x9, x9, #1
	subs	x8, x8, x9
	b.hi	LBB47_4
	b	LBB47_3
LBB47_2:
	add	x0, sp, #48
	adrp	x8, l___unnamed_13@PAGE
	add	x8, x8, l___unnamed_13@PAGEOFF
	str	x8, [sp, #48]
	mov	w8, #1
	str	x8, [sp, #56]
	adrp	x9, l___unnamed_7@PAGE
	adrp	x8, l___unnamed_7@PAGE
	add	x8, x8, l___unnamed_7@PAGEOFF
	ldr	x9, [x9, l___unnamed_7@PAGEOFF]
	ldr	x8, [x8, #8]
	str	x9, [sp, #80]
	str	x8, [sp, #88]
	adrp	x8, l___unnamed_8@PAGE
	add	x8, x8, l___unnamed_8@PAGEOFF
	str	x8, [sp, #64]
	str	xzr, [sp, #72]
	adrp	x1, l___unnamed_14@PAGE
	add	x1, x1, l___unnamed_14@PAGEOFF
	bl	__ZN4core9panicking9panic_fmt17h98bbf7bdf4994454E
LBB47_3:
	ldr	x8, [sp, #40]
	ldr	x9, [sp, #8]
	ldr	x10, [sp, #32]
	ldr	x11, [sp, #24]
	ldr	x12, [sp, #16]
	str	x12, [x9]
	str	x11, [x9, #8]
	adrp	x12, l___unnamed_7@PAGE
	adrp	x11, l___unnamed_7@PAGE
	add	x11, x11, l___unnamed_7@PAGEOFF
	ldr	x12, [x12, l___unnamed_7@PAGEOFF]
	ldr	x11, [x11, #8]
	str	x12, [x9, #32]
	str	x11, [x9, #40]
	str	x10, [x9, #16]
	str	x8, [x9, #24]
	.cfi_def_cfa wsp, 112
	ldp	x29, x30, [sp, #96]
	add	sp, sp, #112
	.cfi_def_cfa_offset 0
	.cfi_restore w30
	.cfi_restore w29
	ret
LBB47_4:
	.cfi_restore_state
	b	LBB47_2
	.cfi_endproc

	.p2align	2
__ZN4core3fmt9Arguments9new_const17hb03f19c839408508E:
	.cfi_startproc
	sub	sp, sp, #96
	.cfi_def_cfa_offset 96
	stp	x29, x30, [sp, #80]
	add	x29, sp, #80
	.cfi_def_cfa w29, 16
	.cfi_offset w30, -8
	.cfi_offset w29, -16
	.cfi_remember_state
	str	x8, [sp, #8]
	str	x0, [sp, #16]
	str	x1, [sp, #24]
	subs	x8, x1, #1
	b.hi	LBB48_2
	b	LBB48_1
LBB48_1:
	ldr	x8, [sp, #8]
	ldr	x9, [sp, #24]
	ldr	x10, [sp, #16]
	str	x10, [x8]
	str	x9, [x8, #8]
	adrp	x10, l___unnamed_7@PAGE
	adrp	x9, l___unnamed_7@PAGE
	add	x9, x9, l___unnamed_7@PAGEOFF
	ldr	x10, [x10, l___unnamed_7@PAGEOFF]
	ldr	x9, [x9, #8]
	str	x10, [x8, #32]
	str	x9, [x8, #40]
	adrp	x9, l___unnamed_8@PAGE
	add	x9, x9, l___unnamed_8@PAGEOFF
	str	x9, [x8, #16]
	str	xzr, [x8, #24]
	.cfi_def_cfa wsp, 96
	ldp	x29, x30, [sp, #80]
	add	sp, sp, #96
	.cfi_def_cfa_offset 0
	.cfi_restore w30
	.cfi_restore w29
	ret
LBB48_2:
	.cfi_restore_state
	add	x8, sp, #32
	str	x8, [sp]
	adrp	x0, l___unnamed_13@PAGE
	add	x0, x0, l___unnamed_13@PAGEOFF
	mov	w9, #1
	mov	x1, x9
	bl	__ZN4core3fmt9Arguments9new_const17hb03f19c839408508E
	ldr	x0, [sp]
	adrp	x1, l___unnamed_15@PAGE
	add	x1, x1, l___unnamed_15@PAGEOFF
	bl	__ZN4core9panicking9panic_fmt17h98bbf7bdf4994454E
	.cfi_endproc

	.p2align	2
__ZN4core3fmt9Formatter9write_fmt17h153b963f3ea3120aE:
	.cfi_startproc
	sub	sp, sp, #128
	.cfi_def_cfa_offset 128
	stp	x29, x30, [sp, #112]
	add	x29, sp, #112
	.cfi_def_cfa w29, 16
	.cfi_offset w30, -8
	.cfi_offset w29, -16
	str	x0, [sp, #24]
	mov	x0, x1
	str	x0, [sp, #32]
	bl	__ZN4core3fmt9Arguments12as_const_str17h866d4e7a8cc409b5E
	str	x0, [sp, #48]
	str	x1, [sp, #56]
	ldr	x8, [sp, #48]
	subs	x8, x8, #0
	cset	x8, ne
	subs	x8, x8, #1
	b.ne	LBB49_2
	b	LBB49_1
LBB49_1:
	ldr	x8, [sp, #24]
	ldr	x1, [sp, #48]
	ldr	x2, [sp, #56]
	ldr	x0, [x8, #32]
	ldr	x8, [x8, #40]
	ldr	x8, [x8, #24]
	blr	x8
	strb	w0, [sp, #47]
	b	LBB49_3
LBB49_2:
	ldr	x1, [sp, #32]
	ldr	x8, [sp, #24]
	ldr	x9, [x8, #32]
	str	x9, [sp]
	ldr	x8, [x8, #40]
	str	x8, [sp, #8]
	sub	x0, x29, #48
	str	x0, [sp, #16]
	mov	w8, #48
	mov	x2, x8
	bl	_memcpy
	ldr	x0, [sp]
	ldr	x1, [sp, #8]
	ldr	x2, [sp, #16]
	bl	__ZN4core3fmt5write17hbadb443a71b75f23E
	strb	w0, [sp, #47]
	b	LBB49_3
LBB49_3:
	ldrb	w8, [sp, #47]
	and	w0, w8, #0x1
	.cfi_def_cfa wsp, 128
	ldp	x29, x30, [sp, #112]
	add	sp, sp, #128
	.cfi_def_cfa_offset 0
	.cfi_restore w30
	.cfi_restore w29
	ret
	.cfi_endproc

	.p2align	2
__ZN4core3ops8function6FnOnce40call_once$u7b$$u7b$vtable.shim$u7d$$u7d$17hbd0bd907336b8d8eE:
	.cfi_startproc
	sub	sp, sp, #32
	.cfi_def_cfa_offset 32
	stp	x29, x30, [sp, #16]
	add	x29, sp, #16
	.cfi_def_cfa w29, 16
	.cfi_offset w30, -8
	.cfi_offset w29, -16
	ldr	x0, [x0]
	bl	__ZN4core3ops8function6FnOnce9call_once17hdd445ba18d89ab56E
	.cfi_def_cfa wsp, 32
	ldp	x29, x30, [sp, #16]
	add	sp, sp, #32
	.cfi_def_cfa_offset 0
	.cfi_restore w30
	.cfi_restore w29
	ret
	.cfi_endproc

	.p2align	2
__ZN4core3ops8function6FnOnce9call_once17h0a913df53902e0f9E:
	.cfi_startproc
	sub	sp, sp, #32
	.cfi_def_cfa_offset 32
	stp	x29, x30, [sp, #16]
	add	x29, sp, #16
	.cfi_def_cfa w29, 16
	.cfi_offset w30, -8
	.cfi_offset w29, -16
	blr	x0
	.cfi_def_cfa wsp, 32
	ldp	x29, x30, [sp, #16]
	add	sp, sp, #32
	.cfi_def_cfa_offset 0
	.cfi_restore w30
	.cfi_restore w29
	ret
	.cfi_endproc

	.p2align	2
__ZN4core3ops8function6FnOnce9call_once17h2b29b13d06e50de0E:
	.cfi_startproc
	sub	sp, sp, #32
	.cfi_def_cfa_offset 32
	stp	x29, x30, [sp, #16]
	add	x29, sp, #16
	.cfi_def_cfa w29, 16
	.cfi_offset w30, -8
	.cfi_offset w29, -16
	str	x0, [sp]
	str	x1, [sp, #8]
	ldr	x0, [sp]
	ldr	x1, [sp, #8]
	bl	__ZN4core3cmp5impls50_$LT$impl$u20$core..cmp..Ord$u20$for$u20$usize$GT$3cmp17hd42860831d83f422E
	.cfi_def_cfa wsp, 32
	ldp	x29, x30, [sp, #16]
	add	sp, sp, #32
	.cfi_def_cfa_offset 0
	.cfi_restore w30
	.cfi_restore w29
	ret
	.cfi_endproc

	.p2align	2
__ZN4core3ops8function6FnOnce9call_once17hdd445ba18d89ab56E:
Lfunc_begin7:
	.cfi_startproc
	.cfi_personality 155, _rust_eh_personality
	.cfi_lsda 16, Lexception7
	sub	sp, sp, #64
	.cfi_def_cfa_offset 64
	stp	x29, x30, [sp, #48]
	add	x29, sp, #48
	.cfi_def_cfa w29, 16
	.cfi_offset w30, -8
	.cfi_offset w29, -16
	mov	x8, x0
	add	x0, sp, #16
	str	x8, [sp, #16]
Ltmp38:
	bl	__ZN3std2rt10lang_start28_$u7b$$u7b$closure$u7d$$u7d$17h65f6febff2dbe018E
	str	w0, [sp, #12]
Ltmp39:
	b	LBB53_3
LBB53_1:
	ldur	x0, [x29, #-16]
	bl	__Unwind_Resume
LBB53_2:
Ltmp40:
	stur	x0, [x29, #-16]
	mov	x8, x1
	stur	w8, [x29, #-8]
	b	LBB53_1
LBB53_3:
	ldr	w0, [sp, #12]
	.cfi_def_cfa wsp, 64
	ldp	x29, x30, [sp, #48]
	add	sp, sp, #64
	.cfi_def_cfa_offset 0
	.cfi_restore w30
	.cfi_restore w29
	ret
Lfunc_end7:
	.cfi_endproc
	.section	__TEXT,__gcc_except_tab
	.p2align	2, 0x0
GCC_except_table53:
Lexception7:
	.byte	255
	.byte	255
	.byte	1
	.uleb128 Lcst_end7-Lcst_begin7
Lcst_begin7:
	.uleb128 Ltmp38-Lfunc_begin7
	.uleb128 Ltmp39-Ltmp38
	.uleb128 Ltmp40-Lfunc_begin7
	.byte	0
	.uleb128 Ltmp39-Lfunc_begin7
	.uleb128 Lfunc_end7-Ltmp39
	.byte	0
	.byte	0
Lcst_end7:
	.p2align	2, 0x0

	.section	__TEXT,__text,regular,pure_instructions
	.p2align	2
__ZN4core3ptr100drop_in_place$LT$alloc..boxed..Box$LT$$u5b$main..instructions..Instruction2$u3b$$u20$17$u5d$$GT$$GT$17hcc250ad903e8ab72E:
	.cfi_startproc
	sub	sp, sp, #48
	.cfi_def_cfa_offset 48
	stp	x29, x30, [sp, #32]
	add	x29, sp, #32
	.cfi_def_cfa w29, 16
	.cfi_offset w30, -8
	.cfi_offset w29, -16
	str	x0, [sp, #8]
	b	LBB54_1
LBB54_1:
	ldr	x0, [sp, #8]
	bl	__ZN72_$LT$alloc..boxed..Box$LT$T$C$A$GT$$u20$as$u20$core..ops..drop..Drop$GT$4drop17h1f2c720a5dbee91aE
	.cfi_def_cfa wsp, 48
	ldp	x29, x30, [sp, #32]
	add	sp, sp, #48
	.cfi_def_cfa_offset 0
	.cfi_restore w30
	.cfi_restore w29
	ret
	.cfi_endproc

	.p2align	2
__ZN4core3ptr101drop_in_place$LT$alloc..boxed..Box$LT$$u5b$main..instructions..InstructionV2$u3b$$u20$14$u5d$$GT$$GT$17hbadbccd766535580E:
	.cfi_startproc
	sub	sp, sp, #48
	.cfi_def_cfa_offset 48
	stp	x29, x30, [sp, #32]
	add	x29, sp, #32
	.cfi_def_cfa w29, 16
	.cfi_offset w30, -8
	.cfi_offset w29, -16
	str	x0, [sp, #8]
	b	LBB55_1
LBB55_1:
	ldr	x0, [sp, #8]
	bl	__ZN72_$LT$alloc..boxed..Box$LT$T$C$A$GT$$u20$as$u20$core..ops..drop..Drop$GT$4drop17h95337d73c9fc504dE
	.cfi_def_cfa wsp, 48
	ldp	x29, x30, [sp, #32]
	add	sp, sp, #48
	.cfi_def_cfa_offset 0
	.cfi_restore w30
	.cfi_restore w29
	ret
	.cfi_endproc

	.p2align	2
__ZN4core3ptr108drop_in_place$LT$alloc..vec..Vec$LT$$LP$usize$C$$u5b$main..instructions..Operand$u3b$$u20$4$u5d$$RP$$GT$$GT$17h4b2975b76c04d018E:
Lfunc_begin8:
	.cfi_startproc
	.cfi_personality 155, _rust_eh_personality
	.cfi_lsda 16, Lexception8
	sub	sp, sp, #48
	.cfi_def_cfa_offset 48
	stp	x29, x30, [sp, #32]
	add	x29, sp, #32
	.cfi_def_cfa w29, 16
	.cfi_offset w30, -8
	.cfi_offset w29, -16
	.cfi_remember_state
	str	x0, [sp, #8]
Ltmp41:
	bl	__ZN70_$LT$alloc..vec..Vec$LT$T$C$A$GT$$u20$as$u20$core..ops..drop..Drop$GT$4drop17h231c7dc41ab0bd21E
Ltmp42:
	b	LBB56_3
LBB56_1:
Ltmp44:
	ldr	x0, [sp, #8]
	bl	__ZN4core3ptr115drop_in_place$LT$alloc..raw_vec..RawVec$LT$$LP$usize$C$$u5b$main..instructions..Operand$u3b$$u20$4$u5d$$RP$$GT$$GT$17hf3aeed6e3618d139E
Ltmp45:
	b	LBB56_5
LBB56_2:
Ltmp43:
	str	x0, [sp, #16]
	mov	x8, x1
	str	w8, [sp, #24]
	b	LBB56_1
LBB56_3:
	ldr	x0, [sp, #8]
	bl	__ZN4core3ptr115drop_in_place$LT$alloc..raw_vec..RawVec$LT$$LP$usize$C$$u5b$main..instructions..Operand$u3b$$u20$4$u5d$$RP$$GT$$GT$17hf3aeed6e3618d139E
	.cfi_def_cfa wsp, 48
	ldp	x29, x30, [sp, #32]
	add	sp, sp, #48
	.cfi_def_cfa_offset 0
	.cfi_restore w30
	.cfi_restore w29
	ret
LBB56_4:
	.cfi_restore_state
Ltmp46:
	bl	__ZN4core9panicking16panic_in_cleanup17he9ef3195c438193cE
LBB56_5:
	ldr	x0, [sp, #16]
	bl	__Unwind_Resume
Lfunc_end8:
	.cfi_endproc
	.section	__TEXT,__gcc_except_tab
	.p2align	2, 0x0
GCC_except_table56:
Lexception8:
	.byte	255
	.byte	155
	.uleb128 Lttbase2-Lttbaseref2
Lttbaseref2:
	.byte	1
	.uleb128 Lcst_end8-Lcst_begin8
Lcst_begin8:
	.uleb128 Ltmp41-Lfunc_begin8
	.uleb128 Ltmp42-Ltmp41
	.uleb128 Ltmp43-Lfunc_begin8
	.byte	0
	.uleb128 Ltmp44-Lfunc_begin8
	.uleb128 Ltmp45-Ltmp44
	.uleb128 Ltmp46-Lfunc_begin8
	.byte	1
	.uleb128 Ltmp45-Lfunc_begin8
	.uleb128 Lfunc_end8-Ltmp45
	.byte	0
	.byte	0
Lcst_end8:
	.byte	127
	.byte	0
	.p2align	2, 0x0
Lttbase2:
	.byte	0
	.p2align	2, 0x0

	.section	__TEXT,__text,regular,pure_instructions
	.p2align	2
__ZN4core3ptr115drop_in_place$LT$alloc..raw_vec..RawVec$LT$$LP$usize$C$$u5b$main..instructions..Operand$u3b$$u20$4$u5d$$RP$$GT$$GT$17hf3aeed6e3618d139E:
	.cfi_startproc
	stp	x29, x30, [sp, #-16]!
	.cfi_def_cfa_offset 16
	mov	x29, sp
	.cfi_def_cfa w29, 16
	.cfi_offset w30, -8
	.cfi_offset w29, -16
	bl	__ZN77_$LT$alloc..raw_vec..RawVec$LT$T$C$A$GT$$u20$as$u20$core..ops..drop..Drop$GT$4drop17hef91980bc59f6821E
	.cfi_def_cfa wsp, 16
	ldp	x29, x30, [sp], #16
	.cfi_def_cfa_offset 0
	.cfi_restore w30
	.cfi_restore w29
	ret
	.cfi_endproc

	.p2align	2
__ZN4core3ptr116drop_in_place$LT$alloc..boxed..Box$LT$$u5b$$LP$usize$C$main..instructions..Instruction2$RP$$u3b$$u20$17$u5d$$GT$$GT$17h7169344e8e3a6389E:
	.cfi_startproc
	sub	sp, sp, #48
	.cfi_def_cfa_offset 48
	stp	x29, x30, [sp, #32]
	add	x29, sp, #32
	.cfi_def_cfa w29, 16
	.cfi_offset w30, -8
	.cfi_offset w29, -16
	str	x0, [sp, #8]
	b	LBB58_1
LBB58_1:
	ldr	x0, [sp, #8]
	bl	__ZN72_$LT$alloc..boxed..Box$LT$T$C$A$GT$$u20$as$u20$core..ops..drop..Drop$GT$4drop17h23d957b2c2c2dd12E
	.cfi_def_cfa wsp, 48
	ldp	x29, x30, [sp, #32]
	add	sp, sp, #48
	.cfi_def_cfa_offset 0
	.cfi_restore w30
	.cfi_restore w29
	ret
	.cfi_endproc

	.p2align	2
__ZN4core3ptr132drop_in_place$LT$alloc..boxed..Box$LT$$u5b$$LP$usize$C$$u5b$main..instructions..Operand$u3b$$u20$4$u5d$$RP$$u3b$$u20$17$u5d$$GT$$GT$17h7971495c0f700895E:
	.cfi_startproc
	sub	sp, sp, #48
	.cfi_def_cfa_offset 48
	stp	x29, x30, [sp, #32]
	add	x29, sp, #32
	.cfi_def_cfa w29, 16
	.cfi_offset w30, -8
	.cfi_offset w29, -16
	str	x0, [sp, #8]
	b	LBB59_1
LBB59_1:
	ldr	x0, [sp, #8]
	bl	__ZN72_$LT$alloc..boxed..Box$LT$T$C$A$GT$$u20$as$u20$core..ops..drop..Drop$GT$4drop17h42ee07ad48cc5cbcE
	.cfi_def_cfa wsp, 48
	ldp	x29, x30, [sp, #32]
	add	sp, sp, #48
	.cfi_def_cfa_offset 0
	.cfi_restore w30
	.cfi_restore w29
	ret
	.cfi_endproc

	.p2align	2
__ZN4core3ptr13read_volatile18precondition_check17haf6a701692d729fdE:
Lfunc_begin9:
	.cfi_startproc
	.cfi_personality 155, _rust_eh_personality
	.cfi_lsda 16, Lexception9
	sub	sp, sp, #32
	.cfi_def_cfa_offset 32
	stp	x29, x30, [sp, #16]
	add	x29, sp, #16
	.cfi_def_cfa w29, 16
	.cfi_offset w30, -8
	.cfi_offset w29, -16
Ltmp47:
	bl	__ZN4core10intrinsics23is_aligned_and_not_null17hb603c5b18fd12102E
	stur	w0, [x29, #-4]
Ltmp48:
	b	LBB60_2
LBB60_1:
Ltmp49:
	bl	__ZN4core9panicking19panic_cannot_unwind17h1836202834f564f7E
LBB60_2:
	ldur	w8, [x29, #-4]
	tbnz	w8, #0, LBB60_4
	b	LBB60_3
LBB60_3:
	adrp	x0, l___unnamed_16@PAGE
	add	x0, x0, l___unnamed_16@PAGEOFF
	mov	w8, #110
	mov	x1, x8
	bl	__ZN4core9panicking14panic_nounwind17h765f3648d339fa95E
LBB60_4:
	.cfi_def_cfa wsp, 32
	ldp	x29, x30, [sp, #16]
	add	sp, sp, #32
	.cfi_def_cfa_offset 0
	.cfi_restore w30
	.cfi_restore w29
	ret
Lfunc_end9:
	.cfi_endproc
	.section	__TEXT,__gcc_except_tab
	.p2align	2, 0x0
GCC_except_table60:
Lexception9:
	.byte	255
	.byte	155
	.uleb128 Lttbase3-Lttbaseref3
Lttbaseref3:
	.byte	1
	.uleb128 Lcst_end9-Lcst_begin9
Lcst_begin9:
	.uleb128 Ltmp47-Lfunc_begin9
	.uleb128 Ltmp48-Ltmp47
	.uleb128 Ltmp49-Lfunc_begin9
	.byte	1
Lcst_end9:
	.byte	127
	.byte	0
	.p2align	2, 0x0
Lttbase3:
	.byte	0
	.p2align	2, 0x0

	.section	__TEXT,__text,regular,pure_instructions
	.p2align	2
__ZN4core3ptr23drop_in_place$LT$u8$GT$17h1763cab59d4cadfcE:
	.cfi_startproc
	ret
	.cfi_endproc

	.p2align	2
__ZN4core3ptr28drop_in_place$LT$$RF$i32$GT$17h99d783be20b987d1E:
	.cfi_startproc
	ret
	.cfi_endproc

	.p2align	2
__ZN4core3ptr28drop_in_place$LT$$RF$i64$GT$17he1f8dc4ad8c7c841E:
	.cfi_startproc
	ret
	.cfi_endproc

	.p2align	2
__ZN4core3ptr28drop_in_place$LT$$RF$str$GT$17h133c57e7d33347b9E:
	.cfi_startproc
	ret
	.cfi_endproc

	.p2align	2
__ZN4core3ptr29drop_in_place$LT$$RF$bool$GT$17hf9c10089fe597c86E:
	.cfi_startproc
	ret
	.cfi_endproc

	.p2align	2
__ZN4core3ptr29drop_in_place$LT$main..VM$GT$17h33d51f14d3fcf26dE:
Lfunc_begin10:
	.cfi_startproc
	.cfi_personality 155, _rust_eh_personality
	.cfi_lsda 16, Lexception10
	sub	sp, sp, #48
	.cfi_def_cfa_offset 48
	stp	x29, x30, [sp, #32]
	add	x29, sp, #32
	.cfi_def_cfa w29, 16
	.cfi_offset w30, -8
	.cfi_offset w29, -16
	.cfi_remember_state
	str	x0, [sp, #8]
Ltmp50:
	bl	__ZN4core3ptr41drop_in_place$LT$main..vm_util..Stack$GT$17h156d0e55a5646dacE
Ltmp51:
	b	LBB66_3
LBB66_1:
	ldr	x8, [sp, #8]
	add	x0, x8, #48
Ltmp53:
	bl	__ZN4core3ptr49drop_in_place$LT$alloc..vec..Vec$LT$usize$GT$$GT$17hf7e818baffe1683fE
Ltmp54:
	b	LBB66_5
LBB66_2:
Ltmp52:
	str	x0, [sp, #16]
	mov	x8, x1
	str	w8, [sp, #24]
	b	LBB66_1
LBB66_3:
	ldr	x8, [sp, #8]
	add	x0, x8, #48
	bl	__ZN4core3ptr49drop_in_place$LT$alloc..vec..Vec$LT$usize$GT$$GT$17hf7e818baffe1683fE
	.cfi_def_cfa wsp, 48
	ldp	x29, x30, [sp, #32]
	add	sp, sp, #48
	.cfi_def_cfa_offset 0
	.cfi_restore w30
	.cfi_restore w29
	ret
LBB66_4:
	.cfi_restore_state
Ltmp55:
	bl	__ZN4core9panicking16panic_in_cleanup17he9ef3195c438193cE
LBB66_5:
	ldr	x0, [sp, #16]
	bl	__Unwind_Resume
Lfunc_end10:
	.cfi_endproc
	.section	__TEXT,__gcc_except_tab
	.p2align	2, 0x0
GCC_except_table66:
Lexception10:
	.byte	255
	.byte	155
	.uleb128 Lttbase4-Lttbaseref4
Lttbaseref4:
	.byte	1
	.uleb128 Lcst_end10-Lcst_begin10
Lcst_begin10:
	.uleb128 Ltmp50-Lfunc_begin10
	.uleb128 Ltmp51-Ltmp50
	.uleb128 Ltmp52-Lfunc_begin10
	.byte	0
	.uleb128 Ltmp53-Lfunc_begin10
	.uleb128 Ltmp54-Ltmp53
	.uleb128 Ltmp55-Lfunc_begin10
	.byte	1
	.uleb128 Ltmp54-Lfunc_begin10
	.uleb128 Lfunc_end10-Ltmp54
	.byte	0
	.byte	0
Lcst_end10:
	.byte	127
	.byte	0
	.p2align	2, 0x0
Lttbase4:
	.byte	0
	.p2align	2, 0x0

	.section	__TEXT,__text,regular,pure_instructions
	.p2align	2
__ZN4core3ptr30drop_in_place$LT$$RF$usize$GT$17hdfbb0672aebe3775E:
	.cfi_startproc
	ret
	.cfi_endproc

	.p2align	2
__ZN4core3ptr41drop_in_place$LT$main..vm_util..Stack$GT$17h156d0e55a5646dacE:
Lfunc_begin11:
	.cfi_startproc
	.cfi_personality 155, _rust_eh_personality
	.cfi_lsda 16, Lexception11
	sub	sp, sp, #48
	.cfi_def_cfa_offset 48
	stp	x29, x30, [sp, #32]
	add	x29, sp, #32
	.cfi_def_cfa w29, 16
	.cfi_offset w30, -8
	.cfi_offset w29, -16
	.cfi_remember_state
	str	x0, [sp, #8]
Ltmp56:
	bl	__ZN4core3ptr69drop_in_place$LT$alloc..vec..Vec$LT$main..vm_util..StackValue$GT$$GT$17hc496bbea7a6bec5eE
Ltmp57:
	b	LBB68_3
LBB68_1:
	ldr	x8, [sp, #8]
	add	x0, x8, #24
Ltmp59:
	bl	__ZN4core3ptr49drop_in_place$LT$alloc..vec..Vec$LT$usize$GT$$GT$17hf7e818baffe1683fE
Ltmp60:
	b	LBB68_5
LBB68_2:
Ltmp58:
	str	x0, [sp, #16]
	mov	x8, x1
	str	w8, [sp, #24]
	b	LBB68_1
LBB68_3:
	ldr	x8, [sp, #8]
	add	x0, x8, #24
	bl	__ZN4core3ptr49drop_in_place$LT$alloc..vec..Vec$LT$usize$GT$$GT$17hf7e818baffe1683fE
	.cfi_def_cfa wsp, 48
	ldp	x29, x30, [sp, #32]
	add	sp, sp, #48
	.cfi_def_cfa_offset 0
	.cfi_restore w30
	.cfi_restore w29
	ret
LBB68_4:
	.cfi_restore_state
Ltmp61:
	bl	__ZN4core9panicking16panic_in_cleanup17he9ef3195c438193cE
LBB68_5:
	ldr	x0, [sp, #16]
	bl	__Unwind_Resume
Lfunc_end11:
	.cfi_endproc
	.section	__TEXT,__gcc_except_tab
	.p2align	2, 0x0
GCC_except_table68:
Lexception11:
	.byte	255
	.byte	155
	.uleb128 Lttbase5-Lttbaseref5
Lttbaseref5:
	.byte	1
	.uleb128 Lcst_end11-Lcst_begin11
Lcst_begin11:
	.uleb128 Ltmp56-Lfunc_begin11
	.uleb128 Ltmp57-Ltmp56
	.uleb128 Ltmp58-Lfunc_begin11
	.byte	0
	.uleb128 Ltmp59-Lfunc_begin11
	.uleb128 Ltmp60-Ltmp59
	.uleb128 Ltmp61-Lfunc_begin11
	.byte	1
	.uleb128 Ltmp60-Lfunc_begin11
	.uleb128 Lfunc_end11-Ltmp60
	.byte	0
	.byte	0
Lcst_end11:
	.byte	127
	.byte	0
	.p2align	2, 0x0
Lttbase5:
	.byte	0
	.p2align	2, 0x0

	.section	__TEXT,__text,regular,pure_instructions
	.p2align	2
__ZN4core3ptr45drop_in_place$LT$$RF$main..vm_util..Value$GT$17h84350351536a9094E:
	.cfi_startproc
	ret
	.cfi_endproc

	.p2align	2
__ZN4core3ptr49drop_in_place$LT$alloc..vec..Vec$LT$usize$GT$$GT$17hf7e818baffe1683fE:
Lfunc_begin12:
	.cfi_startproc
	.cfi_personality 155, _rust_eh_personality
	.cfi_lsda 16, Lexception12
	sub	sp, sp, #48
	.cfi_def_cfa_offset 48
	stp	x29, x30, [sp, #32]
	add	x29, sp, #32
	.cfi_def_cfa w29, 16
	.cfi_offset w30, -8
	.cfi_offset w29, -16
	.cfi_remember_state
	str	x0, [sp, #8]
Ltmp62:
	bl	__ZN70_$LT$alloc..vec..Vec$LT$T$C$A$GT$$u20$as$u20$core..ops..drop..Drop$GT$4drop17ha0f625439a49ea68E
Ltmp63:
	b	LBB70_3
LBB70_1:
Ltmp65:
	ldr	x0, [sp, #8]
	bl	__ZN4core3ptr56drop_in_place$LT$alloc..raw_vec..RawVec$LT$usize$GT$$GT$17h1f6eca46a1e089d9E
Ltmp66:
	b	LBB70_5
LBB70_2:
Ltmp64:
	str	x0, [sp, #16]
	mov	x8, x1
	str	w8, [sp, #24]
	b	LBB70_1
LBB70_3:
	ldr	x0, [sp, #8]
	bl	__ZN4core3ptr56drop_in_place$LT$alloc..raw_vec..RawVec$LT$usize$GT$$GT$17h1f6eca46a1e089d9E
	.cfi_def_cfa wsp, 48
	ldp	x29, x30, [sp, #32]
	add	sp, sp, #48
	.cfi_def_cfa_offset 0
	.cfi_restore w30
	.cfi_restore w29
	ret
LBB70_4:
	.cfi_restore_state
Ltmp67:
	bl	__ZN4core9panicking16panic_in_cleanup17he9ef3195c438193cE
LBB70_5:
	ldr	x0, [sp, #16]
	bl	__Unwind_Resume
Lfunc_end12:
	.cfi_endproc
	.section	__TEXT,__gcc_except_tab
	.p2align	2, 0x0
GCC_except_table70:
Lexception12:
	.byte	255
	.byte	155
	.uleb128 Lttbase6-Lttbaseref6
Lttbaseref6:
	.byte	1
	.uleb128 Lcst_end12-Lcst_begin12
Lcst_begin12:
	.uleb128 Ltmp62-Lfunc_begin12
	.uleb128 Ltmp63-Ltmp62
	.uleb128 Ltmp64-Lfunc_begin12
	.byte	0
	.uleb128 Ltmp65-Lfunc_begin12
	.uleb128 Ltmp66-Ltmp65
	.uleb128 Ltmp67-Lfunc_begin12
	.byte	1
	.uleb128 Ltmp66-Lfunc_begin12
	.uleb128 Lfunc_end12-Ltmp66
	.byte	0
	.byte	0
Lcst_end12:
	.byte	127
	.byte	0
	.p2align	2, 0x0
Lttbase6:
	.byte	0
	.p2align	2, 0x0

	.section	__TEXT,__text,regular,pure_instructions
	.p2align	2
__ZN4core3ptr50drop_in_place$LT$$RF$main..vm_util..StackValue$GT$17h73a9f2651e3f0c04E:
	.cfi_startproc
	ret
	.cfi_endproc

	.p2align	2
__ZN4core3ptr53drop_in_place$LT$$RF$alloc..vec..Vec$LT$usize$GT$$GT$17hf3708de75d14da17E:
	.cfi_startproc
	ret
	.cfi_endproc

	.p2align	2
__ZN4core3ptr54drop_in_place$LT$$RF$main..instructions..InstrData$GT$17hf66b31b500ac6387E:
	.cfi_startproc
	ret
	.cfi_endproc

	.p2align	2
__ZN4core3ptr56drop_in_place$LT$alloc..raw_vec..RawVec$LT$usize$GT$$GT$17h1f6eca46a1e089d9E:
	.cfi_startproc
	stp	x29, x30, [sp, #-16]!
	.cfi_def_cfa_offset 16
	mov	x29, sp
	.cfi_def_cfa w29, 16
	.cfi_offset w30, -8
	.cfi_offset w29, -16
	bl	__ZN77_$LT$alloc..raw_vec..RawVec$LT$T$C$A$GT$$u20$as$u20$core..ops..drop..Drop$GT$4drop17hc00eaaabd0855f1eE
	.cfi_def_cfa wsp, 16
	ldp	x29, x30, [sp], #16
	.cfi_def_cfa_offset 0
	.cfi_restore w30
	.cfi_restore w29
	ret
	.cfi_endproc

	.p2align	2
__ZN4core3ptr58drop_in_place$LT$$RF$main..instructions..InstructionV2$GT$17hf58833b6e8a351a3E:
	.cfi_startproc
	ret
	.cfi_endproc

	.p2align	2
__ZN4core3ptr64drop_in_place$LT$alloc..vec..Vec$LT$main..vm_util..Value$GT$$GT$17h5e3a7fb19708ec5dE:
Lfunc_begin13:
	.cfi_startproc
	.cfi_personality 155, _rust_eh_personality
	.cfi_lsda 16, Lexception13
	sub	sp, sp, #48
	.cfi_def_cfa_offset 48
	stp	x29, x30, [sp, #32]
	add	x29, sp, #32
	.cfi_def_cfa w29, 16
	.cfi_offset w30, -8
	.cfi_offset w29, -16
	.cfi_remember_state
	str	x0, [sp, #8]
Ltmp68:
	bl	__ZN70_$LT$alloc..vec..Vec$LT$T$C$A$GT$$u20$as$u20$core..ops..drop..Drop$GT$4drop17h180872de86a57143E
Ltmp69:
	b	LBB76_3
LBB76_1:
Ltmp71:
	ldr	x0, [sp, #8]
	bl	__ZN4core3ptr71drop_in_place$LT$alloc..raw_vec..RawVec$LT$main..vm_util..Value$GT$$GT$17h2a842fbc93e66f9eE
Ltmp72:
	b	LBB76_5
LBB76_2:
Ltmp70:
	str	x0, [sp, #16]
	mov	x8, x1
	str	w8, [sp, #24]
	b	LBB76_1
LBB76_3:
	ldr	x0, [sp, #8]
	bl	__ZN4core3ptr71drop_in_place$LT$alloc..raw_vec..RawVec$LT$main..vm_util..Value$GT$$GT$17h2a842fbc93e66f9eE
	.cfi_def_cfa wsp, 48
	ldp	x29, x30, [sp, #32]
	add	sp, sp, #48
	.cfi_def_cfa_offset 0
	.cfi_restore w30
	.cfi_restore w29
	ret
LBB76_4:
	.cfi_restore_state
Ltmp73:
	bl	__ZN4core9panicking16panic_in_cleanup17he9ef3195c438193cE
LBB76_5:
	ldr	x0, [sp, #16]
	bl	__Unwind_Resume
Lfunc_end13:
	.cfi_endproc
	.section	__TEXT,__gcc_except_tab
	.p2align	2, 0x0
GCC_except_table76:
Lexception13:
	.byte	255
	.byte	155
	.uleb128 Lttbase7-Lttbaseref7
Lttbaseref7:
	.byte	1
	.uleb128 Lcst_end13-Lcst_begin13
Lcst_begin13:
	.uleb128 Ltmp68-Lfunc_begin13
	.uleb128 Ltmp69-Ltmp68
	.uleb128 Ltmp70-Lfunc_begin13
	.byte	0
	.uleb128 Ltmp71-Lfunc_begin13
	.uleb128 Ltmp72-Ltmp71
	.uleb128 Ltmp73-Lfunc_begin13
	.byte	1
	.uleb128 Ltmp72-Lfunc_begin13
	.uleb128 Lfunc_end13-Ltmp72
	.byte	0
	.byte	0
Lcst_end13:
	.byte	127
	.byte	0
	.p2align	2, 0x0
Lttbase7:
	.byte	0
	.p2align	2, 0x0

	.section	__TEXT,__text,regular,pure_instructions
	.p2align	2
__ZN4core3ptr69drop_in_place$LT$alloc..vec..Vec$LT$main..vm_util..StackValue$GT$$GT$17hc496bbea7a6bec5eE:
Lfunc_begin14:
	.cfi_startproc
	.cfi_personality 155, _rust_eh_personality
	.cfi_lsda 16, Lexception14
	sub	sp, sp, #48
	.cfi_def_cfa_offset 48
	stp	x29, x30, [sp, #32]
	add	x29, sp, #32
	.cfi_def_cfa w29, 16
	.cfi_offset w30, -8
	.cfi_offset w29, -16
	.cfi_remember_state
	str	x0, [sp, #8]
Ltmp74:
	bl	__ZN70_$LT$alloc..vec..Vec$LT$T$C$A$GT$$u20$as$u20$core..ops..drop..Drop$GT$4drop17hbb1ff3e1f6843a73E
Ltmp75:
	b	LBB77_3
LBB77_1:
Ltmp77:
	ldr	x0, [sp, #8]
	bl	__ZN4core3ptr76drop_in_place$LT$alloc..raw_vec..RawVec$LT$main..vm_util..StackValue$GT$$GT$17hfbf04edc6e28f5d6E
Ltmp78:
	b	LBB77_5
LBB77_2:
Ltmp76:
	str	x0, [sp, #16]
	mov	x8, x1
	str	w8, [sp, #24]
	b	LBB77_1
LBB77_3:
	ldr	x0, [sp, #8]
	bl	__ZN4core3ptr76drop_in_place$LT$alloc..raw_vec..RawVec$LT$main..vm_util..StackValue$GT$$GT$17hfbf04edc6e28f5d6E
	.cfi_def_cfa wsp, 48
	ldp	x29, x30, [sp, #32]
	add	sp, sp, #48
	.cfi_def_cfa_offset 0
	.cfi_restore w30
	.cfi_restore w29
	ret
LBB77_4:
	.cfi_restore_state
Ltmp79:
	bl	__ZN4core9panicking16panic_in_cleanup17he9ef3195c438193cE
LBB77_5:
	ldr	x0, [sp, #16]
	bl	__Unwind_Resume
Lfunc_end14:
	.cfi_endproc
	.section	__TEXT,__gcc_except_tab
	.p2align	2, 0x0
GCC_except_table77:
Lexception14:
	.byte	255
	.byte	155
	.uleb128 Lttbase8-Lttbaseref8
Lttbaseref8:
	.byte	1
	.uleb128 Lcst_end14-Lcst_begin14
Lcst_begin14:
	.uleb128 Ltmp74-Lfunc_begin14
	.uleb128 Ltmp75-Ltmp74
	.uleb128 Ltmp76-Lfunc_begin14
	.byte	0
	.uleb128 Ltmp77-Lfunc_begin14
	.uleb128 Ltmp78-Ltmp77
	.uleb128 Ltmp79-Lfunc_begin14
	.byte	1
	.uleb128 Ltmp78-Lfunc_begin14
	.uleb128 Lfunc_end14-Ltmp78
	.byte	0
	.byte	0
Lcst_end14:
	.byte	127
	.byte	0
	.p2align	2, 0x0
Lttbase8:
	.byte	0
	.p2align	2, 0x0

	.section	__TEXT,__text,regular,pure_instructions
	.p2align	2
__ZN4core3ptr71drop_in_place$LT$alloc..raw_vec..RawVec$LT$main..vm_util..Value$GT$$GT$17h2a842fbc93e66f9eE:
	.cfi_startproc
	stp	x29, x30, [sp, #-16]!
	.cfi_def_cfa_offset 16
	mov	x29, sp
	.cfi_def_cfa w29, 16
	.cfi_offset w30, -8
	.cfi_offset w29, -16
	bl	__ZN77_$LT$alloc..raw_vec..RawVec$LT$T$C$A$GT$$u20$as$u20$core..ops..drop..Drop$GT$4drop17hdf0d79ed7ea6d829E
	.cfi_def_cfa wsp, 16
	ldp	x29, x30, [sp], #16
	.cfi_def_cfa_offset 0
	.cfi_restore w30
	.cfi_restore w29
	ret
	.cfi_endproc

	.p2align	2
__ZN4core3ptr72drop_in_place$LT$std..panicking..begin_panic..Payload$LT$$RF$str$GT$$GT$17hd6b5ec900259bc94E:
	.cfi_startproc
	ret
	.cfi_endproc

	.p2align	2
__ZN4core3ptr75drop_in_place$LT$alloc..vec..Vec$LT$main..instructions..Instruction$GT$$GT$17hb330cbe1268ffd9aE:
Lfunc_begin15:
	.cfi_startproc
	.cfi_personality 155, _rust_eh_personality
	.cfi_lsda 16, Lexception15
	sub	sp, sp, #48
	.cfi_def_cfa_offset 48
	stp	x29, x30, [sp, #32]
	add	x29, sp, #32
	.cfi_def_cfa w29, 16
	.cfi_offset w30, -8
	.cfi_offset w29, -16
	.cfi_remember_state
	str	x0, [sp, #8]
Ltmp80:
	bl	__ZN70_$LT$alloc..vec..Vec$LT$T$C$A$GT$$u20$as$u20$core..ops..drop..Drop$GT$4drop17h1a22e1d4b76bb115E
Ltmp81:
	b	LBB80_3
LBB80_1:
Ltmp83:
	ldr	x0, [sp, #8]
	bl	__ZN4core3ptr82drop_in_place$LT$alloc..raw_vec..RawVec$LT$main..instructions..Instruction$GT$$GT$17h8b7e95bc849700e7E
Ltmp84:
	b	LBB80_5
LBB80_2:
Ltmp82:
	str	x0, [sp, #16]
	mov	x8, x1
	str	w8, [sp, #24]
	b	LBB80_1
LBB80_3:
	ldr	x0, [sp, #8]
	bl	__ZN4core3ptr82drop_in_place$LT$alloc..raw_vec..RawVec$LT$main..instructions..Instruction$GT$$GT$17h8b7e95bc849700e7E
	.cfi_def_cfa wsp, 48
	ldp	x29, x30, [sp, #32]
	add	sp, sp, #48
	.cfi_def_cfa_offset 0
	.cfi_restore w30
	.cfi_restore w29
	ret
LBB80_4:
	.cfi_restore_state
Ltmp85:
	bl	__ZN4core9panicking16panic_in_cleanup17he9ef3195c438193cE
LBB80_5:
	ldr	x0, [sp, #16]
	bl	__Unwind_Resume
Lfunc_end15:
	.cfi_endproc
	.section	__TEXT,__gcc_except_tab
	.p2align	2, 0x0
GCC_except_table80:
Lexception15:
	.byte	255
	.byte	155
	.uleb128 Lttbase9-Lttbaseref9
Lttbaseref9:
	.byte	1
	.uleb128 Lcst_end15-Lcst_begin15
Lcst_begin15:
	.uleb128 Ltmp80-Lfunc_begin15
	.uleb128 Ltmp81-Ltmp80
	.uleb128 Ltmp82-Lfunc_begin15
	.byte	0
	.uleb128 Ltmp83-Lfunc_begin15
	.uleb128 Ltmp84-Ltmp83
	.uleb128 Ltmp85-Lfunc_begin15
	.byte	1
	.uleb128 Ltmp84-Lfunc_begin15
	.uleb128 Lfunc_end15-Ltmp84
	.byte	0
	.byte	0
Lcst_end15:
	.byte	127
	.byte	0
	.p2align	2, 0x0
Lttbase9:
	.byte	0
	.p2align	2, 0x0

	.section	__TEXT,__text,regular,pure_instructions
	.p2align	2
__ZN4core3ptr76drop_in_place$LT$alloc..raw_vec..RawVec$LT$main..vm_util..StackValue$GT$$GT$17hfbf04edc6e28f5d6E:
	.cfi_startproc
	stp	x29, x30, [sp, #-16]!
	.cfi_def_cfa_offset 16
	mov	x29, sp
	.cfi_def_cfa w29, 16
	.cfi_offset w30, -8
	.cfi_offset w29, -16
	bl	__ZN77_$LT$alloc..raw_vec..RawVec$LT$T$C$A$GT$$u20$as$u20$core..ops..drop..Drop$GT$4drop17h05557965ee1802d3E
	.cfi_def_cfa wsp, 16
	ldp	x29, x30, [sp], #16
	.cfi_def_cfa_offset 0
	.cfi_restore w30
	.cfi_restore w29
	ret
	.cfi_endproc

	.p2align	2
__ZN4core3ptr76drop_in_place$LT$alloc..vec..Vec$LT$main..instructions..Instruction2$GT$$GT$17heda17ac1179fa6a0E:
Lfunc_begin16:
	.cfi_startproc
	.cfi_personality 155, _rust_eh_personality
	.cfi_lsda 16, Lexception16
	sub	sp, sp, #48
	.cfi_def_cfa_offset 48
	stp	x29, x30, [sp, #32]
	add	x29, sp, #32
	.cfi_def_cfa w29, 16
	.cfi_offset w30, -8
	.cfi_offset w29, -16
	.cfi_remember_state
	str	x0, [sp, #8]
Ltmp86:
	bl	__ZN70_$LT$alloc..vec..Vec$LT$T$C$A$GT$$u20$as$u20$core..ops..drop..Drop$GT$4drop17ha4da5c1ab779e773E
Ltmp87:
	b	LBB82_3
LBB82_1:
Ltmp89:
	ldr	x0, [sp, #8]
	bl	__ZN4core3ptr83drop_in_place$LT$alloc..raw_vec..RawVec$LT$main..instructions..Instruction2$GT$$GT$17h5fa3e707a5fa79faE
Ltmp90:
	b	LBB82_5
LBB82_2:
Ltmp88:
	str	x0, [sp, #16]
	mov	x8, x1
	str	w8, [sp, #24]
	b	LBB82_1
LBB82_3:
	ldr	x0, [sp, #8]
	bl	__ZN4core3ptr83drop_in_place$LT$alloc..raw_vec..RawVec$LT$main..instructions..Instruction2$GT$$GT$17h5fa3e707a5fa79faE
	.cfi_def_cfa wsp, 48
	ldp	x29, x30, [sp, #32]
	add	sp, sp, #48
	.cfi_def_cfa_offset 0
	.cfi_restore w30
	.cfi_restore w29
	ret
LBB82_4:
	.cfi_restore_state
Ltmp91:
	bl	__ZN4core9panicking16panic_in_cleanup17he9ef3195c438193cE
LBB82_5:
	ldr	x0, [sp, #16]
	bl	__Unwind_Resume
Lfunc_end16:
	.cfi_endproc
	.section	__TEXT,__gcc_except_tab
	.p2align	2, 0x0
GCC_except_table82:
Lexception16:
	.byte	255
	.byte	155
	.uleb128 Lttbase10-Lttbaseref10
Lttbaseref10:
	.byte	1
	.uleb128 Lcst_end16-Lcst_begin16
Lcst_begin16:
	.uleb128 Ltmp86-Lfunc_begin16
	.uleb128 Ltmp87-Ltmp86
	.uleb128 Ltmp88-Lfunc_begin16
	.byte	0
	.uleb128 Ltmp89-Lfunc_begin16
	.uleb128 Ltmp90-Ltmp89
	.uleb128 Ltmp91-Lfunc_begin16
	.byte	1
	.uleb128 Ltmp90-Lfunc_begin16
	.uleb128 Lfunc_end16-Ltmp90
	.byte	0
	.byte	0
Lcst_end16:
	.byte	127
	.byte	0
	.p2align	2, 0x0
Lttbase10:
	.byte	0
	.p2align	2, 0x0

	.section	__TEXT,__text,regular,pure_instructions
	.p2align	2
__ZN4core3ptr77drop_in_place$LT$alloc..vec..Vec$LT$main..instructions..InstructionV2$GT$$GT$17h570c83b0fdd350d5E:
Lfunc_begin17:
	.cfi_startproc
	.cfi_personality 155, _rust_eh_personality
	.cfi_lsda 16, Lexception17
	sub	sp, sp, #48
	.cfi_def_cfa_offset 48
	stp	x29, x30, [sp, #32]
	add	x29, sp, #32
	.cfi_def_cfa w29, 16
	.cfi_offset w30, -8
	.cfi_offset w29, -16
	.cfi_remember_state
	str	x0, [sp, #8]
Ltmp92:
	bl	__ZN70_$LT$alloc..vec..Vec$LT$T$C$A$GT$$u20$as$u20$core..ops..drop..Drop$GT$4drop17hb5f518fa518ba4b4E
Ltmp93:
	b	LBB83_3
LBB83_1:
Ltmp95:
	ldr	x0, [sp, #8]
	bl	__ZN4core3ptr84drop_in_place$LT$alloc..raw_vec..RawVec$LT$main..instructions..InstructionV2$GT$$GT$17ha4f89cb7d7f1df4cE
Ltmp96:
	b	LBB83_5
LBB83_2:
Ltmp94:
	str	x0, [sp, #16]
	mov	x8, x1
	str	w8, [sp, #24]
	b	LBB83_1
LBB83_3:
	ldr	x0, [sp, #8]
	bl	__ZN4core3ptr84drop_in_place$LT$alloc..raw_vec..RawVec$LT$main..instructions..InstructionV2$GT$$GT$17ha4f89cb7d7f1df4cE
	.cfi_def_cfa wsp, 48
	ldp	x29, x30, [sp, #32]
	add	sp, sp, #48
	.cfi_def_cfa_offset 0
	.cfi_restore w30
	.cfi_restore w29
	ret
LBB83_4:
	.cfi_restore_state
Ltmp97:
	bl	__ZN4core9panicking16panic_in_cleanup17he9ef3195c438193cE
LBB83_5:
	ldr	x0, [sp, #16]
	bl	__Unwind_Resume
Lfunc_end17:
	.cfi_endproc
	.section	__TEXT,__gcc_except_tab
	.p2align	2, 0x0
GCC_except_table83:
Lexception17:
	.byte	255
	.byte	155
	.uleb128 Lttbase11-Lttbaseref11
Lttbaseref11:
	.byte	1
	.uleb128 Lcst_end17-Lcst_begin17
Lcst_begin17:
	.uleb128 Ltmp92-Lfunc_begin17
	.uleb128 Ltmp93-Ltmp92
	.uleb128 Ltmp94-Lfunc_begin17
	.byte	0
	.uleb128 Ltmp95-Lfunc_begin17
	.uleb128 Ltmp96-Ltmp95
	.uleb128 Ltmp97-Lfunc_begin17
	.byte	1
	.uleb128 Ltmp96-Lfunc_begin17
	.uleb128 Lfunc_end17-Ltmp96
	.byte	0
	.byte	0
Lcst_end17:
	.byte	127
	.byte	0
	.p2align	2, 0x0
Lttbase11:
	.byte	0
	.p2align	2, 0x0

	.section	__TEXT,__text,regular,pure_instructions
	.p2align	2
__ZN4core3ptr82drop_in_place$LT$alloc..raw_vec..RawVec$LT$main..instructions..Instruction$GT$$GT$17h8b7e95bc849700e7E:
	.cfi_startproc
	stp	x29, x30, [sp, #-16]!
	.cfi_def_cfa_offset 16
	mov	x29, sp
	.cfi_def_cfa w29, 16
	.cfi_offset w30, -8
	.cfi_offset w29, -16
	bl	__ZN77_$LT$alloc..raw_vec..RawVec$LT$T$C$A$GT$$u20$as$u20$core..ops..drop..Drop$GT$4drop17h6bf902f7bfb0ce56E
	.cfi_def_cfa wsp, 16
	ldp	x29, x30, [sp], #16
	.cfi_def_cfa_offset 0
	.cfi_restore w30
	.cfi_restore w29
	ret
	.cfi_endproc

	.p2align	2
__ZN4core3ptr83drop_in_place$LT$alloc..raw_vec..RawVec$LT$main..instructions..Instruction2$GT$$GT$17h5fa3e707a5fa79faE:
	.cfi_startproc
	stp	x29, x30, [sp, #-16]!
	.cfi_def_cfa_offset 16
	mov	x29, sp
	.cfi_def_cfa w29, 16
	.cfi_offset w30, -8
	.cfi_offset w29, -16
	bl	__ZN77_$LT$alloc..raw_vec..RawVec$LT$T$C$A$GT$$u20$as$u20$core..ops..drop..Drop$GT$4drop17h96d84aa33aca4a86E
	.cfi_def_cfa wsp, 16
	ldp	x29, x30, [sp], #16
	.cfi_def_cfa_offset 0
	.cfi_restore w30
	.cfi_restore w29
	ret
	.cfi_endproc

	.p2align	2
__ZN4core3ptr84drop_in_place$LT$alloc..raw_vec..RawVec$LT$main..instructions..InstructionV2$GT$$GT$17ha4f89cb7d7f1df4cE:
	.cfi_startproc
	stp	x29, x30, [sp, #-16]!
	.cfi_def_cfa_offset 16
	mov	x29, sp
	.cfi_def_cfa w29, 16
	.cfi_offset w30, -8
	.cfi_offset w29, -16
	bl	__ZN77_$LT$alloc..raw_vec..RawVec$LT$T$C$A$GT$$u20$as$u20$core..ops..drop..Drop$GT$4drop17h2c166a266ee37d1eE
	.cfi_def_cfa wsp, 16
	ldp	x29, x30, [sp], #16
	.cfi_def_cfa_offset 0
	.cfi_restore w30
	.cfi_restore w29
	ret
	.cfi_endproc

	.p2align	2
__ZN4core3ptr85drop_in_place$LT$std..rt..lang_start$LT$$LP$$RP$$GT$..$u7b$$u7b$closure$u7d$$u7d$$GT$17he62c7a8a4e5d4ffeE:
	.cfi_startproc
	ret
	.cfi_endproc

	.p2align	2
__ZN4core3ptr8non_null16NonNull$LT$T$GT$13new_unchecked18precondition_check17h014695bd6199ce65E:
	.cfi_startproc
	stp	x29, x30, [sp, #-16]!
	.cfi_def_cfa_offset 16
	mov	x29, sp
	.cfi_def_cfa w29, 16
	.cfi_offset w30, -8
	.cfi_offset w29, -16
	cbnz	x0, LBB88_2
	b	LBB88_1
LBB88_1:
	adrp	x0, l___unnamed_17@PAGE
	add	x0, x0, l___unnamed_17@PAGEOFF
	mov	w8, #93
	mov	x1, x8
	bl	__ZN4core9panicking14panic_nounwind17h765f3648d339fa95E
LBB88_2:
	.cfi_def_cfa wsp, 16
	ldp	x29, x30, [sp], #16
	.cfi_def_cfa_offset 0
	.cfi_restore w30
	.cfi_restore w29
	ret
	.cfi_endproc

	.p2align	2
__ZN4core3ptr92drop_in_place$LT$alloc..vec..Vec$LT$$LP$usize$C$main..instructions..Instruction2$RP$$GT$$GT$17hf0fdb457992ba510E:
Lfunc_begin18:
	.cfi_startproc
	.cfi_personality 155, _rust_eh_personality
	.cfi_lsda 16, Lexception18
	sub	sp, sp, #48
	.cfi_def_cfa_offset 48
	stp	x29, x30, [sp, #32]
	add	x29, sp, #32
	.cfi_def_cfa w29, 16
	.cfi_offset w30, -8
	.cfi_offset w29, -16
	.cfi_remember_state
	str	x0, [sp, #8]
Ltmp98:
	bl	__ZN70_$LT$alloc..vec..Vec$LT$T$C$A$GT$$u20$as$u20$core..ops..drop..Drop$GT$4drop17heedb86448cd32201E
Ltmp99:
	b	LBB89_3
LBB89_1:
Ltmp101:
	ldr	x0, [sp, #8]
	bl	__ZN4core3ptr99drop_in_place$LT$alloc..raw_vec..RawVec$LT$$LP$usize$C$main..instructions..Instruction2$RP$$GT$$GT$17haea928a7d1f5fb1cE
Ltmp102:
	b	LBB89_5
LBB89_2:
Ltmp100:
	str	x0, [sp, #16]
	mov	x8, x1
	str	w8, [sp, #24]
	b	LBB89_1
LBB89_3:
	ldr	x0, [sp, #8]
	bl	__ZN4core3ptr99drop_in_place$LT$alloc..raw_vec..RawVec$LT$$LP$usize$C$main..instructions..Instruction2$RP$$GT$$GT$17haea928a7d1f5fb1cE
	.cfi_def_cfa wsp, 48
	ldp	x29, x30, [sp, #32]
	add	sp, sp, #48
	.cfi_def_cfa_offset 0
	.cfi_restore w30
	.cfi_restore w29
	ret
LBB89_4:
	.cfi_restore_state
Ltmp103:
	bl	__ZN4core9panicking16panic_in_cleanup17he9ef3195c438193cE
LBB89_5:
	ldr	x0, [sp, #16]
	bl	__Unwind_Resume
Lfunc_end18:
	.cfi_endproc
	.section	__TEXT,__gcc_except_tab
	.p2align	2, 0x0
GCC_except_table89:
Lexception18:
	.byte	255
	.byte	155
	.uleb128 Lttbase12-Lttbaseref12
Lttbaseref12:
	.byte	1
	.uleb128 Lcst_end18-Lcst_begin18
Lcst_begin18:
	.uleb128 Ltmp98-Lfunc_begin18
	.uleb128 Ltmp99-Ltmp98
	.uleb128 Ltmp100-Lfunc_begin18
	.byte	0
	.uleb128 Ltmp101-Lfunc_begin18
	.uleb128 Ltmp102-Ltmp101
	.uleb128 Ltmp103-Lfunc_begin18
	.byte	1
	.uleb128 Ltmp102-Lfunc_begin18
	.uleb128 Lfunc_end18-Ltmp102
	.byte	0
	.byte	0
Lcst_end18:
	.byte	127
	.byte	0
	.p2align	2, 0x0
Lttbase12:
	.byte	0
	.p2align	2, 0x0

	.section	__TEXT,__text,regular,pure_instructions
	.p2align	2
__ZN4core3ptr99drop_in_place$LT$alloc..boxed..Box$LT$$u5b$main..instructions..Instruction$u3b$$u20$12$u5d$$GT$$GT$17h607d9b4bfc4c1fe3E:
	.cfi_startproc
	sub	sp, sp, #48
	.cfi_def_cfa_offset 48
	stp	x29, x30, [sp, #32]
	add	x29, sp, #32
	.cfi_def_cfa w29, 16
	.cfi_offset w30, -8
	.cfi_offset w29, -16
	str	x0, [sp, #8]
	b	LBB90_1
LBB90_1:
	ldr	x0, [sp, #8]
	bl	__ZN72_$LT$alloc..boxed..Box$LT$T$C$A$GT$$u20$as$u20$core..ops..drop..Drop$GT$4drop17h5bdf4cd9537f880aE
	.cfi_def_cfa wsp, 48
	ldp	x29, x30, [sp, #32]
	add	sp, sp, #48
	.cfi_def_cfa_offset 0
	.cfi_restore w30
	.cfi_restore w29
	ret
	.cfi_endproc

	.p2align	2
__ZN4core3ptr99drop_in_place$LT$alloc..raw_vec..RawVec$LT$$LP$usize$C$main..instructions..Instruction2$RP$$GT$$GT$17haea928a7d1f5fb1cE:
	.cfi_startproc
	stp	x29, x30, [sp, #-16]!
	.cfi_def_cfa_offset 16
	mov	x29, sp
	.cfi_def_cfa w29, 16
	.cfi_offset w30, -8
	.cfi_offset w29, -16
	bl	__ZN77_$LT$alloc..raw_vec..RawVec$LT$T$C$A$GT$$u20$as$u20$core..ops..drop..Drop$GT$4drop17h88c485db797c154fE
	.cfi_def_cfa wsp, 16
	ldp	x29, x30, [sp], #16
	.cfi_def_cfa_offset 0
	.cfi_restore w30
	.cfi_restore w29
	ret
	.cfi_endproc

	.p2align	2
__ZN4core4hint16assert_unchecked18precondition_check17h3d2b16db344f9c42E:
	.cfi_startproc
	stp	x29, x30, [sp, #-16]!
	.cfi_def_cfa_offset 16
	mov	x29, sp
	.cfi_def_cfa w29, 16
	.cfi_offset w30, -8
	.cfi_offset w29, -16
	tbnz	w0, #0, LBB92_2
	b	LBB92_1
LBB92_1:
	adrp	x0, l___unnamed_18@PAGE
	add	x0, x0, l___unnamed_18@PAGEOFF
	mov	w8, #104
	mov	x1, x8
	bl	__ZN4core9panicking14panic_nounwind17h765f3648d339fa95E
LBB92_2:
	.cfi_def_cfa wsp, 16
	ldp	x29, x30, [sp], #16
	.cfi_def_cfa_offset 0
	.cfi_restore w30
	.cfi_restore w29
	ret
	.cfi_endproc

	.p2align	2
__ZN4core5alloc6layout6Layout5array5inner17h6f4b5b5253e62597E:
	.cfi_startproc
	sub	sp, sp, #96
	.cfi_def_cfa_offset 96
	stp	x29, x30, [sp, #80]
	add	x29, sp, #80
	.cfi_def_cfa w29, 16
	.cfi_offset w30, -8
	.cfi_offset w29, -16
	str	x0, [sp, #8]
	str	x1, [sp, #16]
	str	x2, [sp, #24]
	cbnz	x0, LBB93_2
	b	LBB93_1
LBB93_1:
	ldr	x8, [sp, #16]
	ldr	x9, [sp, #8]
	ldr	x10, [sp, #24]
	mul	x9, x9, x10
	stur	x8, [x29, #-8]
	ldur	x8, [x29, #-8]
	stur	x9, [x29, #-24]
	stur	x8, [x29, #-32]
	ldur	x9, [x29, #-32]
	ldur	x8, [x29, #-24]
	str	x9, [sp, #32]
	str	x8, [sp, #40]
	b	LBB93_7
LBB93_2:
	ldr	x8, [sp, #8]
	ldr	x9, [sp, #16]
	stur	x9, [x29, #-16]
	ldur	x9, [x29, #-16]
	subs	x10, x9, #1
	mov	x9, #9223372036854775807
	subs	x9, x9, x10
	str	x9, [sp]
	cbz	x8, LBB93_4
	b	LBB93_3
LBB93_3:
	ldr	x8, [sp, #24]
	ldr	x9, [sp]
	ldr	x10, [sp, #8]
	udiv	x9, x9, x10
	subs	x8, x8, x9
	b.hi	LBB93_6
	b	LBB93_5
LBB93_4:
	adrp	x0, _str.0@PAGE
	add	x0, x0, _str.0@PAGEOFF
	mov	w8, #25
	mov	x1, x8
	adrp	x2, l___unnamed_19@PAGE
	add	x2, x2, l___unnamed_19@PAGEOFF
	bl	__ZN4core9panicking5panic17hc59c8a709a9b37aeE
LBB93_5:
	b	LBB93_1
LBB93_6:
	adrp	x9, l___unnamed_7@PAGE
	adrp	x8, l___unnamed_7@PAGE
	add	x8, x8, l___unnamed_7@PAGEOFF
	ldr	x9, [x9, l___unnamed_7@PAGEOFF]
	ldr	x8, [x8, #8]
	str	x9, [sp, #32]
	str	x8, [sp, #40]
	b	LBB93_7
LBB93_7:
	ldr	x0, [sp, #32]
	ldr	x1, [sp, #40]
	.cfi_def_cfa wsp, 96
	ldp	x29, x30, [sp, #80]
	add	sp, sp, #96
	.cfi_def_cfa_offset 0
	.cfi_restore w30
	.cfi_restore w29
	ret
	.cfi_endproc

	.p2align	2
__ZN4core5alloc6layout6Layout8dangling17habf52b833e2edaf7E:
	.cfi_startproc
	sub	sp, sp, #48
	.cfi_def_cfa_offset 48
	stp	x29, x30, [sp, #32]
	add	x29, sp, #32
	.cfi_def_cfa w29, 16
	.cfi_offset w30, -8
	.cfi_offset w29, -16
	ldr	x8, [x0]
	stur	x8, [x29, #-8]
	ldur	x8, [x29, #-8]
	str	x8, [sp, #8]
	b	LBB94_1
LBB94_1:
	ldr	x8, [sp, #8]
	add	x0, x8, #0
	bl	__ZN4core3ptr8non_null16NonNull$LT$T$GT$13new_unchecked18precondition_check17h014695bd6199ce65E
	b	LBB94_2
LBB94_2:
	ldr	x8, [sp, #8]
	add	x8, x8, #0
	str	x8, [sp, #16]
	ldr	x0, [sp, #16]
	.cfi_def_cfa wsp, 48
	ldp	x29, x30, [sp, #32]
	add	sp, sp, #48
	.cfi_def_cfa_offset 0
	.cfi_restore w30
	.cfi_restore w29
	ret
	.cfi_endproc

	.p2align	2
__ZN4core5slice29_$LT$impl$u20$$u5b$T$u5d$$GT$13get_unchecked17h21f22e255f836a66E:
	.cfi_startproc
	sub	sp, sp, #32
	.cfi_def_cfa_offset 32
	stp	x29, x30, [sp, #16]
	add	x29, sp, #16
	.cfi_def_cfa w29, 16
	.cfi_offset w30, -8
	.cfi_offset w29, -16
	str	x0, [sp]
	mov	x0, x1
	ldr	x1, [sp]
	str	x0, [sp, #8]
	mov	x0, x2
	ldr	x2, [sp, #8]
	bl	__ZN75_$LT$usize$u20$as$u20$core..slice..index..SliceIndex$LT$$u5b$T$u5d$$GT$$GT$13get_unchecked17hcd94d25b0092102dE
	.cfi_def_cfa wsp, 32
	ldp	x29, x30, [sp, #16]
	add	sp, sp, #32
	.cfi_def_cfa_offset 0
	.cfi_restore w30
	.cfi_restore w29
	ret
	.cfi_endproc

	.p2align	2
__ZN4core5slice29_$LT$impl$u20$$u5b$T$u5d$$GT$13get_unchecked17h244297f580e1b3d5E:
	.cfi_startproc
	sub	sp, sp, #32
	.cfi_def_cfa_offset 32
	stp	x29, x30, [sp, #16]
	add	x29, sp, #16
	.cfi_def_cfa w29, 16
	.cfi_offset w30, -8
	.cfi_offset w29, -16
	str	x0, [sp]
	mov	x0, x1
	ldr	x1, [sp]
	str	x0, [sp, #8]
	mov	x0, x2
	ldr	x2, [sp, #8]
	bl	__ZN75_$LT$usize$u20$as$u20$core..slice..index..SliceIndex$LT$$u5b$T$u5d$$GT$$GT$13get_unchecked17h575587ebed97f6beE
	.cfi_def_cfa wsp, 32
	ldp	x29, x30, [sp, #16]
	add	sp, sp, #32
	.cfi_def_cfa_offset 0
	.cfi_restore w30
	.cfi_restore w29
	ret
	.cfi_endproc

	.p2align	2
__ZN4core5slice29_$LT$impl$u20$$u5b$T$u5d$$GT$13get_unchecked17hc2b02be7afc34c85E:
	.cfi_startproc
	sub	sp, sp, #32
	.cfi_def_cfa_offset 32
	stp	x29, x30, [sp, #16]
	add	x29, sp, #16
	.cfi_def_cfa w29, 16
	.cfi_offset w30, -8
	.cfi_offset w29, -16
	str	x0, [sp]
	mov	x0, x1
	ldr	x1, [sp]
	str	x0, [sp, #8]
	mov	x0, x2
	ldr	x2, [sp, #8]
	bl	__ZN75_$LT$usize$u20$as$u20$core..slice..index..SliceIndex$LT$$u5b$T$u5d$$GT$$GT$13get_unchecked17hcb920bf91edc27bdE
	.cfi_def_cfa wsp, 32
	ldp	x29, x30, [sp, #16]
	add	sp, sp, #32
	.cfi_def_cfa_offset 0
	.cfi_restore w30
	.cfi_restore w29
	ret
	.cfi_endproc

	.p2align	2
__ZN4core5slice29_$LT$impl$u20$$u5b$T$u5d$$GT$13get_unchecked17heef6f6ced702b0f7E:
	.cfi_startproc
	sub	sp, sp, #32
	.cfi_def_cfa_offset 32
	stp	x29, x30, [sp, #16]
	add	x29, sp, #16
	.cfi_def_cfa w29, 16
	.cfi_offset w30, -8
	.cfi_offset w29, -16
	str	x0, [sp]
	mov	x0, x1
	ldr	x1, [sp]
	str	x0, [sp, #8]
	mov	x0, x2
	ldr	x2, [sp, #8]
	bl	__ZN75_$LT$usize$u20$as$u20$core..slice..index..SliceIndex$LT$$u5b$T$u5d$$GT$$GT$13get_unchecked17h14d35e93823784dbE
	.cfi_def_cfa wsp, 32
	ldp	x29, x30, [sp, #16]
	add	sp, sp, #32
	.cfi_def_cfa_offset 0
	.cfi_restore w30
	.cfi_restore w29
	ret
	.cfi_endproc

	.p2align	2
__ZN4core5slice3raw14from_raw_parts18precondition_check17h44775545258936e7E:
Lfunc_begin19:
	.cfi_startproc
	.cfi_personality 155, _rust_eh_personality
	.cfi_lsda 16, Lexception19
	sub	sp, sp, #48
	.cfi_def_cfa_offset 48
	stp	x29, x30, [sp, #32]
	add	x29, sp, #32
	.cfi_def_cfa w29, 16
	.cfi_offset w30, -8
	.cfi_offset w29, -16
	str	x1, [sp]
	mov	x1, x2
	str	x3, [sp, #8]
Ltmp104:
	bl	__ZN4core10intrinsics23is_aligned_and_not_null17hb603c5b18fd12102E
	stur	w0, [x29, #-12]
Ltmp105:
	b	LBB99_2
LBB99_1:
Ltmp108:
	bl	__ZN4core9panicking19panic_cannot_unwind17h1836202834f564f7E
LBB99_2:
	ldur	w8, [x29, #-12]
	tbnz	w8, #0, LBB99_4
	b	LBB99_3
LBB99_3:
	b	LBB99_5
LBB99_4:
	ldr	x8, [sp]
	cbz	x8, LBB99_6
	b	LBB99_7
LBB99_5:
	adrp	x0, l___unnamed_20@PAGE
	add	x0, x0, l___unnamed_20@PAGEOFF
	mov	w8, #162
	mov	x1, x8
	bl	__ZN4core9panicking14panic_nounwind17h765f3648d339fa95E
LBB99_6:
	mov	x8, #-1
	stur	x8, [x29, #-8]
	b	LBB99_8
LBB99_7:
	ldr	x8, [sp]
	cbz	x8, LBB99_10
	b	LBB99_9
LBB99_8:
	ldr	x8, [sp, #8]
	ldur	x9, [x29, #-8]
	subs	x8, x8, x9
	b.ls	LBB99_13
	b	LBB99_12
LBB99_9:
	ldr	x9, [sp]
	mov	x8, #9223372036854775807
	udiv	x8, x8, x9
	stur	x8, [x29, #-8]
	b	LBB99_8
LBB99_10:
Ltmp106:
	adrp	x0, _str.0@PAGE
	add	x0, x0, _str.0@PAGEOFF
	mov	w8, #25
	mov	x1, x8
	adrp	x2, l___unnamed_21@PAGE
	add	x2, x2, l___unnamed_21@PAGEOFF
	bl	__ZN4core9panicking5panic17hc59c8a709a9b37aeE
Ltmp107:
	b	LBB99_11
LBB99_11:
	brk	#0x1
LBB99_12:
	b	LBB99_5
LBB99_13:
	.cfi_def_cfa wsp, 48
	ldp	x29, x30, [sp, #32]
	add	sp, sp, #48
	.cfi_def_cfa_offset 0
	.cfi_restore w30
	.cfi_restore w29
	ret
Lfunc_end19:
	.cfi_endproc
	.section	__TEXT,__gcc_except_tab
	.p2align	2, 0x0
GCC_except_table99:
Lexception19:
	.byte	255
	.byte	155
	.uleb128 Lttbase13-Lttbaseref13
Lttbaseref13:
	.byte	1
	.uleb128 Lcst_end19-Lcst_begin19
Lcst_begin19:
	.uleb128 Ltmp104-Lfunc_begin19
	.uleb128 Ltmp107-Ltmp104
	.uleb128 Ltmp108-Lfunc_begin19
	.byte	1
Lcst_end19:
	.byte	127
	.byte	0
	.p2align	2, 0x0
Lttbase13:
	.byte	0
	.p2align	2, 0x0

	.section	__TEXT,__text,regular,pure_instructions
	.p2align	2
__ZN4core9panicking13assert_failed17h34e476f4fba23c5eE:
	.cfi_startproc
	sub	sp, sp, #32
	.cfi_def_cfa_offset 32
	stp	x29, x30, [sp, #16]
	add	x29, sp, #16
	.cfi_def_cfa w29, 16
	.cfi_offset w30, -8
	.cfi_offset w29, -16
	mov	x8, x1
	mov	x5, x3
	mov	x6, x4
	mov	x1, sp
	str	x8, [sp]
	add	x3, sp, #8
	str	x2, [sp, #8]
	adrp	x4, l___unnamed_10@PAGE
	add	x4, x4, l___unnamed_10@PAGEOFF
	mov	x2, x4
	bl	__ZN4core9panicking19assert_failed_inner17hf761943632c466c1E
	.cfi_endproc

	.p2align	2
__ZN54_$LT$$LP$$RP$$u20$as$u20$std..process..Termination$GT$6report17h6050c7b93a1c6573E:
	.cfi_startproc
	mov	w0, #0
	ret
	.cfi_endproc

	.p2align	2
__ZN59_$LT$$RF$u128$u20$as$u20$core..ops..bit..Shr$LT$i32$GT$$GT$3shr17h1514458bce170824E:
	.cfi_startproc
	sub	sp, sp, #48
	.cfi_def_cfa_offset 48
	stp	x29, x30, [sp, #32]
	add	x29, sp, #32
	.cfi_def_cfa w29, 16
	.cfi_offset w30, -8
	.cfi_offset w29, -16
	.cfi_remember_state
	str	w1, [sp, #12]
	ldr	q0, [x0]
	str	q0, [sp, #16]
	subs	w8, w1, #128
	b.hs	LBB102_2
	b	LBB102_1
LBB102_1:
	ldr	q1, [sp, #16]
	ldr	w9, [sp, #12]
	mov	w8, #0
	mov	x13, x9
	bfi	x13, x8, #32, #32
	mov	x9, #0
	and	x10, x13, #0x7f
	mov	w8, #64
	fmov	d0, d1
	mov	d1, v1[1]
	subs	x14, x10, #64
	subs	x15, x8, x10
	fmov	x8, d1
	lsr	x8, x8, x10
	fmov	x11, d0
	lsr	x11, x11, x10
	fmov	x12, d1
	lsl	x12, x12, x15
	orr	x11, x11, x12
	fmov	x12, d1
	lsr	x12, x12, x14
	subs	x14, x10, #64
	csel	x12, x11, x12, lo
	fmov	x11, d0
	ands	x13, x13, #0x7f
	csel	x0, x11, x12, eq
	subs	x10, x10, #64
	csel	x1, x8, x9, lo
	.cfi_def_cfa wsp, 48
	ldp	x29, x30, [sp, #32]
	add	sp, sp, #48
	.cfi_def_cfa_offset 0
	.cfi_restore w30
	.cfi_restore w29
	ret
LBB102_2:
	.cfi_restore_state
	adrp	x0, _str.1@PAGE
	add	x0, x0, _str.1@PAGEOFF
	mov	w8, #36
	mov	x1, x8
	adrp	x2, l___unnamed_22@PAGE
	add	x2, x2, l___unnamed_22@PAGEOFF
	bl	__ZN4core9panicking5panic17hc59c8a709a9b37aeE
	.cfi_endproc

	.p2align	2
__ZN5alloc3vec12Vec$LT$T$GT$3new17h9a1b419d29aacfb7E:
	.cfi_startproc
	str	xzr, [x8]
	mov	w9, #8
	str	x9, [x8, #8]
	str	xzr, [x8, #16]
	ret
	.cfi_endproc

	.p2align	2
__ZN5alloc3vec12Vec$LT$T$GT$3new17ha107aee19cd17e30E:
	.cfi_startproc
	str	xzr, [x8]
	mov	w9, #8
	str	x9, [x8, #8]
	str	xzr, [x8, #16]
	ret
	.cfi_endproc

	.p2align	2
__ZN5alloc3vec16Vec$LT$T$C$A$GT$3len17h27d589a0d32c4e01E:
	.cfi_startproc
	ldr	x0, [x0, #16]
	ret
	.cfi_endproc

	.p2align	2
__ZN5alloc3vec16Vec$LT$T$C$A$GT$3len17haf3dcdb1269e75b5E:
	.cfi_startproc
	ldr	x0, [x0, #16]
	ret
	.cfi_endproc

	.p2align	2
__ZN5alloc3vec16Vec$LT$T$C$A$GT$3pop17h8ece746ea8cd90fbE:
	.cfi_startproc
	sub	sp, sp, #64
	.cfi_def_cfa_offset 64
	stp	x29, x30, [sp, #48]
	add	x29, sp, #48
	.cfi_def_cfa w29, 16
	.cfi_offset w30, -8
	.cfi_offset w29, -16
	.cfi_remember_state
	str	x0, [sp, #16]
	ldr	x8, [x0, #16]
	cbnz	x8, LBB107_2
	b	LBB107_1
LBB107_1:
	str	xzr, [sp, #24]
	b	LBB107_3
LBB107_2:
	ldr	x8, [sp, #16]
	ldr	x9, [x8, #16]
	subs	x9, x9, #1
	str	x9, [x8, #16]
	ldr	x8, [x8, #16]
	str	x8, [sp, #8]
	b	LBB107_4
LBB107_3:
	ldr	x0, [sp, #24]
	ldr	x1, [sp, #32]
	.cfi_def_cfa wsp, 64
	ldp	x29, x30, [sp, #48]
	add	sp, sp, #64
	.cfi_def_cfa_offset 0
	.cfi_restore w30
	.cfi_restore w29
	ret
LBB107_4:
	.cfi_restore_state
	ldr	x8, [sp, #16]
	ldr	x8, [x8]
	stur	x8, [x29, #-8]
	b	LBB107_5
LBB107_5:
	ldr	x8, [sp, #8]
	ldur	x9, [x29, #-8]
	subs	x8, x8, x9
	cset	w8, lo
	str	w8, [sp, #4]
	b	LBB107_6
LBB107_6:
	ldr	w0, [sp, #4]
	bl	__ZN4core4hint16assert_unchecked18precondition_check17h3d2b16db344f9c42E
	b	LBB107_7
LBB107_7:
	ldr	x9, [sp, #16]
	ldr	x8, [x9, #8]
	ldr	x9, [x9, #16]
	ldr	x8, [x8, x9, lsl #3]
	str	x8, [sp, #32]
	mov	w8, #1
	str	x8, [sp, #24]
	b	LBB107_3
	.cfi_endproc

	.p2align	2
__ZN5alloc3vec16Vec$LT$T$C$A$GT$4push17h369134e97c19391dE:
Lfunc_begin20:
	.cfi_startproc
	.cfi_personality 155, _rust_eh_personality
	.cfi_lsda 16, Lexception20
	sub	sp, sp, #80
	.cfi_def_cfa_offset 80
	stp	x29, x30, [sp, #64]
	add	x29, sp, #64
	.cfi_def_cfa w29, 16
	.cfi_offset w30, -8
	.cfi_offset w29, -16
	.cfi_remember_state
	str	x0, [sp]
	str	x1, [sp, #8]
	ldr	x8, [x0, #16]
	str	x8, [sp, #16]
	b	LBB108_1
LBB108_1:
	ldr	x8, [sp]
	ldr	x8, [x8]
	str	x8, [sp, #24]
	b	LBB108_2
LBB108_2:
	ldr	x8, [sp, #16]
	ldr	x9, [sp, #24]
	subs	x8, x8, x9
	b.eq	LBB108_4
	b	LBB108_3
LBB108_3:
	b	LBB108_5
LBB108_4:
	ldr	x0, [sp]
	ldr	x1, [x0, #16]
Ltmp109:
	bl	__ZN5alloc7raw_vec19RawVec$LT$T$C$A$GT$16reserve_for_push17heb9b076b3a0b5e8eE
Ltmp110:
	b	LBB108_8
LBB108_5:
	ldr	x9, [sp]
	ldr	x11, [sp, #8]
	ldr	x8, [x9, #8]
	ldr	x10, [x9, #16]
	ldr	q0, [x11]
	str	q0, [sp, #32]
	ldr	q0, [sp, #32]
	str	q0, [x8, x10, lsl #4]
	ldr	x8, [x9, #16]
	add	x8, x8, #1
	str	x8, [x9, #16]
	.cfi_def_cfa wsp, 80
	ldp	x29, x30, [sp, #64]
	add	sp, sp, #80
	.cfi_def_cfa_offset 0
	.cfi_restore w30
	.cfi_restore w29
	ret
LBB108_6:
	.cfi_restore_state
	ldur	x0, [x29, #-16]
	bl	__Unwind_Resume
LBB108_7:
Ltmp111:
	stur	x0, [x29, #-16]
	mov	x8, x1
	stur	w8, [x29, #-8]
	b	LBB108_6
LBB108_8:
	b	LBB108_5
Lfunc_end20:
	.cfi_endproc
	.section	__TEXT,__gcc_except_tab
	.p2align	2, 0x0
GCC_except_table108:
Lexception20:
	.byte	255
	.byte	255
	.byte	1
	.uleb128 Lcst_end20-Lcst_begin20
Lcst_begin20:
	.uleb128 Ltmp109-Lfunc_begin20
	.uleb128 Ltmp110-Ltmp109
	.uleb128 Ltmp111-Lfunc_begin20
	.byte	0
	.uleb128 Ltmp110-Lfunc_begin20
	.uleb128 Lfunc_end20-Ltmp110
	.byte	0
	.byte	0
Lcst_end20:
	.p2align	2, 0x0

	.section	__TEXT,__text,regular,pure_instructions
	.p2align	2
__ZN5alloc3vec16Vec$LT$T$C$A$GT$4push17h387bfeda0baaabafE:
Lfunc_begin21:
	.cfi_startproc
	.cfi_personality 155, _rust_eh_personality
	.cfi_lsda 16, Lexception21
	sub	sp, sp, #64
	.cfi_def_cfa_offset 64
	stp	x29, x30, [sp, #48]
	add	x29, sp, #48
	.cfi_def_cfa w29, 16
	.cfi_offset w30, -8
	.cfi_offset w29, -16
	.cfi_remember_state
	str	x0, [sp]
	str	x1, [sp, #8]
	ldr	x8, [x0, #16]
	str	x8, [sp, #16]
	b	LBB109_1
LBB109_1:
	ldr	x8, [sp]
	ldr	x8, [x8]
	str	x8, [sp, #24]
	b	LBB109_2
LBB109_2:
	ldr	x8, [sp, #16]
	ldr	x9, [sp, #24]
	subs	x8, x8, x9
	b.eq	LBB109_4
	b	LBB109_3
LBB109_3:
	b	LBB109_5
LBB109_4:
	ldr	x0, [sp]
	ldr	x1, [x0, #16]
Ltmp112:
	bl	__ZN5alloc7raw_vec19RawVec$LT$T$C$A$GT$16reserve_for_push17hd59edee4349f66d8E
Ltmp113:
	b	LBB109_8
LBB109_5:
	ldr	x9, [sp]
	ldr	x8, [sp, #8]
	ldr	x10, [x9, #8]
	ldr	x11, [x9, #16]
	str	x8, [x10, x11, lsl #3]
	ldr	x8, [x9, #16]
	add	x8, x8, #1
	str	x8, [x9, #16]
	.cfi_def_cfa wsp, 64
	ldp	x29, x30, [sp, #48]
	add	sp, sp, #64
	.cfi_def_cfa_offset 0
	.cfi_restore w30
	.cfi_restore w29
	ret
LBB109_6:
	.cfi_restore_state
	ldur	x0, [x29, #-16]
	bl	__Unwind_Resume
LBB109_7:
Ltmp114:
	stur	x0, [x29, #-16]
	mov	x8, x1
	stur	w8, [x29, #-8]
	b	LBB109_6
LBB109_8:
	b	LBB109_5
Lfunc_end21:
	.cfi_endproc
	.section	__TEXT,__gcc_except_tab
	.p2align	2, 0x0
GCC_except_table109:
Lexception21:
	.byte	255
	.byte	255
	.byte	1
	.uleb128 Lcst_end21-Lcst_begin21
Lcst_begin21:
	.uleb128 Ltmp112-Lfunc_begin21
	.uleb128 Ltmp113-Ltmp112
	.uleb128 Ltmp114-Lfunc_begin21
	.byte	0
	.uleb128 Ltmp113-Lfunc_begin21
	.uleb128 Lfunc_end21-Ltmp113
	.byte	0
	.byte	0
Lcst_end21:
	.p2align	2, 0x0

	.section	__TEXT,__text,regular,pure_instructions
	.p2align	2
__ZN5alloc3vec16Vec$LT$T$C$A$GT$8truncate17hb431a5a89fa1cfadE:
	.cfi_startproc
	sub	sp, sp, #48
	.cfi_def_cfa_offset 48
	str	x0, [sp]
	str	x1, [sp, #8]
	ldr	x8, [x0, #16]
	subs	x8, x1, x8
	b.hi	LBB110_2
	b	LBB110_1
LBB110_1:
	ldr	x8, [sp, #8]
	ldr	x9, [sp]
	ldr	x10, [x9, #16]
	subs	x10, x10, x8
	ldr	x11, [x9, #8]
	add	x11, x11, x8, lsl #4
	str	x11, [sp, #32]
	str	x10, [sp, #40]
	ldr	x11, [sp, #32]
	ldr	x10, [sp, #40]
	str	x11, [sp, #16]
	str	x10, [sp, #24]
	str	x8, [x9, #16]
	b	LBB110_3
LBB110_2:
	b	LBB110_3
LBB110_3:
	add	sp, sp, #48
	.cfi_def_cfa_offset 0
	ret
	.cfi_endproc

	.p2align	2
__ZN5alloc5alloc15exchange_malloc17h941cdcdc6bb63bd7E:
	.cfi_startproc
	sub	sp, sp, #64
	.cfi_def_cfa_offset 64
	stp	x29, x30, [sp, #48]
	add	x29, sp, #48
	.cfi_def_cfa w29, 16
	.cfi_offset w30, -8
	.cfi_offset w29, -16
	.cfi_remember_state
	str	x0, [sp, #16]
	str	x1, [sp, #8]
	ldr	x1, [sp, #8]
	ldr	x2, [sp, #16]
	adrp	x0, l___unnamed_8@PAGE
	add	x0, x0, l___unnamed_8@PAGEOFF
	mov	w8, #0
	and	w3, w8, #0x1
	bl	__ZN5alloc5alloc6Global10alloc_impl17h55da341c4b5c6e3dE
	str	x0, [sp, #24]
	str	x1, [sp, #32]
	ldr	x9, [sp, #24]
	mov	x8, #0
	subs	x9, x9, #0
	csinc	x8, x8, xzr, ne
	cbnz	x8, LBB111_2
	b	LBB111_1
LBB111_1:
	ldr	x0, [sp, #24]
	stur	x0, [x29, #-8]
	.cfi_def_cfa wsp, 64
	ldp	x29, x30, [sp, #48]
	add	sp, sp, #64
	.cfi_def_cfa_offset 0
	.cfi_restore w30
	.cfi_restore w29
	ret
LBB111_2:
	.cfi_restore_state
	ldr	x0, [sp, #8]
	ldr	x1, [sp, #16]
	bl	__ZN5alloc5alloc18handle_alloc_error17h2a00f3202443143aE
	.cfi_endproc

	.p2align	2
__ZN5alloc5alloc5alloc17hb1b9c72044e2280cE:
	.cfi_startproc
	sub	sp, sp, #48
	.cfi_def_cfa_offset 48
	stp	x29, x30, [sp, #32]
	add	x29, sp, #32
	.cfi_def_cfa w29, 16
	.cfi_offset w30, -8
	.cfi_offset w29, -16
	str	x0, [sp]
	str	x1, [sp, #8]
	b	LBB112_1
LBB112_1:
	adrp	x0, ___rust_no_alloc_shim_is_unstable@GOTPAGE
	ldr	x0, [x0, ___rust_no_alloc_shim_is_unstable@GOTPAGEOFF]
	mov	w8, #1
	mov	x1, x8
	bl	__ZN4core3ptr13read_volatile18precondition_check17haf6a701692d729fdE
	b	LBB112_2
LBB112_2:
	adrp	x8, ___rust_no_alloc_shim_is_unstable@GOTPAGE
	ldr	x8, [x8, ___rust_no_alloc_shim_is_unstable@GOTPAGEOFF]
	ldrb	w8, [x8]
	sturb	w8, [x29, #-1]
	ldr	x0, [sp, #8]
	ldr	x8, [sp]
	str	x8, [sp, #16]
	ldr	x1, [sp, #16]
	bl	___rust_alloc
	.cfi_def_cfa wsp, 48
	ldp	x29, x30, [sp, #32]
	add	sp, sp, #48
	.cfi_def_cfa_offset 0
	.cfi_restore w30
	.cfi_restore w29
	ret
	.cfi_endproc

	.p2align	2
__ZN5alloc5alloc6Global10alloc_impl17h55da341c4b5c6e3dE:
	.cfi_startproc
	sub	sp, sp, #288
	.cfi_def_cfa_offset 288
	stp	x28, x27, [sp, #256]
	stp	x29, x30, [sp, #272]
	add	x29, sp, #272
	.cfi_def_cfa w29, 16
	.cfi_offset w30, -8
	.cfi_offset w29, -16
	.cfi_offset w27, -24
	.cfi_offset w28, -32
	.cfi_remember_state
	str	w3, [sp, #52]
	str	x1, [sp, #64]
	str	x2, [sp, #72]
	ldr	x8, [sp, #72]
	str	x8, [sp, #56]
	cbnz	x8, LBB113_2
	b	LBB113_1
LBB113_1:
	add	x0, sp, #64
	bl	__ZN4core5alloc6layout6Layout8dangling17habf52b833e2edaf7E
	stur	x0, [x29, #-80]
	stur	xzr, [x29, #-72]
	ldur	x9, [x29, #-80]
	ldur	x8, [x29, #-72]
	stur	x9, [x29, #-96]
	stur	x8, [x29, #-88]
	ldur	x8, [x29, #-96]
	str	x8, [sp, #32]
	ldur	x8, [x29, #-88]
	str	x8, [sp, #40]
	b	LBB113_3
LBB113_2:
	ldr	w8, [sp, #52]
	tbnz	w8, #0, LBB113_7
	b	LBB113_6
LBB113_3:
	ldr	x0, [sp, #32]
	bl	__ZN4core3ptr8non_null16NonNull$LT$T$GT$13new_unchecked18precondition_check17h014695bd6199ce65E
	b	LBB113_4
LBB113_4:
	ldr	x8, [sp, #40]
	ldr	x9, [sp, #32]
	str	x9, [sp, #96]
	str	x8, [sp, #104]
	ldr	x9, [sp, #96]
	ldr	x8, [sp, #104]
	str	x9, [sp, #80]
	str	x8, [sp, #88]
	b	LBB113_5
LBB113_5:
	ldr	x0, [sp, #80]
	ldr	x1, [sp, #88]
	.cfi_def_cfa wsp, 288
	ldp	x29, x30, [sp, #272]
	ldp	x28, x27, [sp, #256]
	add	sp, sp, #288
	.cfi_def_cfa_offset 0
	.cfi_restore w30
	.cfi_restore w29
	.cfi_restore w27
	.cfi_restore w28
	ret
LBB113_6:
	.cfi_restore_state
	ldr	x0, [sp, #64]
	ldr	x1, [sp, #72]
	bl	__ZN5alloc5alloc5alloc17hb1b9c72044e2280cE
	str	x0, [sp, #112]
	b	LBB113_8
LBB113_7:
	ldr	x9, [sp, #64]
	ldr	x8, [sp, #72]
	str	x9, [sp, #120]
	str	x8, [sp, #128]
	ldr	x0, [sp, #128]
	ldr	x8, [sp, #120]
	stur	x8, [x29, #-64]
	ldur	x1, [x29, #-64]
	bl	___rust_alloc_zeroed
	str	x0, [sp, #112]
	b	LBB113_8
LBB113_8:
	ldr	x8, [sp, #112]
	str	x8, [sp, #24]
	cbnz	x8, LBB113_10
	b	LBB113_9
LBB113_9:
	stur	xzr, [x29, #-120]
	stur	xzr, [x29, #-128]
	adrp	x9, l___unnamed_7@PAGE
	adrp	x8, l___unnamed_7@PAGE
	add	x8, x8, l___unnamed_7@PAGEOFF
	ldr	x9, [x9, l___unnamed_7@PAGEOFF]
	ldr	x8, [x8, #8]
	str	x9, [sp, #80]
	str	x8, [sp, #88]
	b	LBB113_5
LBB113_10:
	b	LBB113_11
LBB113_11:
	ldr	x0, [sp, #24]
	bl	__ZN4core3ptr8non_null16NonNull$LT$T$GT$13new_unchecked18precondition_check17h014695bd6199ce65E
	b	LBB113_12
LBB113_12:
	ldr	x8, [sp, #56]
	ldr	x9, [sp, #24]
	stur	x9, [x29, #-56]
	ldur	x9, [x29, #-56]
	stur	x9, [x29, #-120]
	ldur	x9, [x29, #-120]
	stur	x9, [x29, #-128]
	ldur	x9, [x29, #-128]
	str	x9, [sp, #136]
	ldr	x9, [sp, #136]
	stur	x9, [x29, #-32]
	stur	x8, [x29, #-24]
	ldur	x9, [x29, #-32]
	ldur	x8, [x29, #-24]
	stur	x9, [x29, #-48]
	stur	x8, [x29, #-40]
	ldur	x8, [x29, #-48]
	str	x8, [sp, #8]
	ldur	x8, [x29, #-40]
	str	x8, [sp, #16]
	b	LBB113_13
LBB113_13:
	ldr	x0, [sp, #8]
	bl	__ZN4core3ptr8non_null16NonNull$LT$T$GT$13new_unchecked18precondition_check17h014695bd6199ce65E
	b	LBB113_14
LBB113_14:
	ldr	x8, [sp, #16]
	ldr	x9, [sp, #8]
	stur	x9, [x29, #-112]
	stur	x8, [x29, #-104]
	ldur	x9, [x29, #-112]
	ldur	x8, [x29, #-104]
	str	x9, [sp, #80]
	str	x8, [sp, #88]
	b	LBB113_5
	.cfi_endproc

	.p2align	2
__ZN5alloc5alloc6Global9grow_impl17h186b12e5261a8b98E:
	.cfi_startproc
	sub	sp, sp, #432
	.cfi_def_cfa_offset 432
	stp	x28, x27, [sp, #400]
	stp	x29, x30, [sp, #416]
	add	x29, sp, #416
	.cfi_def_cfa w29, 16
	.cfi_offset w30, -8
	.cfi_offset w29, -16
	.cfi_offset w27, -24
	.cfi_offset w28, -32
	.cfi_remember_state
	str	x0, [sp, #96]
	str	x1, [sp, #104]
	str	w6, [sp, #116]
	str	x2, [sp, #120]
	str	x3, [sp, #128]
	str	x4, [sp, #136]
	str	x5, [sp, #144]
	ldr	x8, [sp, #128]
	str	x8, [sp, #168]
	ldr	x8, [sp, #168]
	cbnz	x8, LBB114_2
	b	LBB114_1
LBB114_1:
	ldr	w3, [sp, #116]
	ldr	x0, [sp, #96]
	ldr	x1, [sp, #136]
	ldr	x2, [sp, #144]
	bl	__ZN5alloc5alloc6Global10alloc_impl17h55da341c4b5c6e3dE
	str	x0, [sp, #152]
	str	x1, [sp, #160]
	b	LBB114_3
LBB114_2:
	ldr	x8, [sp, #120]
	stur	x8, [x29, #-136]
	ldur	x8, [x29, #-136]
	ldr	x9, [sp, #136]
	stur	x9, [x29, #-128]
	ldur	x9, [x29, #-128]
	subs	x8, x8, x9
	b.eq	LBB114_5
	b	LBB114_4
LBB114_3:
	b	LBB114_15
LBB114_4:
	ldr	w3, [sp, #116]
	ldr	x0, [sp, #96]
	ldr	x8, [sp, #168]
	str	x8, [sp, #88]
	ldr	x1, [sp, #136]
	ldr	x2, [sp, #144]
	bl	__ZN5alloc5alloc6Global10alloc_impl17h55da341c4b5c6e3dE
	stur	x0, [x29, #-152]
	stur	x1, [x29, #-144]
	ldur	x9, [x29, #-152]
	mov	x8, #0
	subs	x9, x9, #0
	csinc	x8, x8, xzr, ne
	cbz	x8, LBB114_6
	b	LBB114_7
LBB114_5:
	ldr	x8, [sp, #168]
	str	x8, [sp, #64]
	ldr	x8, [sp, #144]
	str	x8, [sp, #72]
	ldr	x9, [sp, #128]
	subs	x8, x8, x9
	cset	w8, hs
	str	w8, [sp, #84]
	b	LBB114_11
LBB114_6:
	ldur	x9, [x29, #-152]
	ldur	x8, [x29, #-144]
	stur	x9, [x29, #-168]
	stur	x8, [x29, #-160]
	ldur	x8, [x29, #-168]
	str	x8, [sp, #48]
	ldur	x9, [x29, #-160]
	str	x9, [sp, #56]
	stur	x8, [x29, #-24]
	b	LBB114_8
LBB114_7:
	adrp	x9, l___unnamed_7@PAGE
	adrp	x8, l___unnamed_7@PAGE
	add	x8, x8, l___unnamed_7@PAGEOFF
	ldr	x9, [x9, l___unnamed_7@PAGEOFF]
	ldr	x8, [x8, #8]
	str	x9, [sp, #152]
	str	x8, [sp, #160]
	b	LBB114_10
LBB114_8:
	ldr	x4, [sp, #88]
	ldr	x1, [sp, #48]
	ldr	x0, [sp, #104]
	mov	w8, #1
	mov	x3, x8
	mov	x2, x3
	bl	__ZN4core10intrinsics19copy_nonoverlapping18precondition_check17h9c1c48ac54a9746cE
	b	LBB114_9
LBB114_9:
	ldr	x0, [sp, #48]
	ldr	x1, [sp, #104]
	ldr	x8, [sp, #88]
	lsr	x2, x8, #0
	bl	_memcpy
	ldr	x0, [sp, #96]
	ldr	x1, [sp, #104]
	ldr	x2, [sp, #120]
	ldr	x3, [sp, #128]
	bl	__ZN63_$LT$alloc..alloc..Global$u20$as$u20$core..alloc..Allocator$GT$10deallocate17hc5fadc8bee5dda52E
	ldr	x9, [sp, #48]
	ldr	x8, [sp, #56]
	str	x9, [sp, #152]
	str	x8, [sp, #160]
	b	LBB114_3
LBB114_10:
	b	LBB114_15
LBB114_11:
	ldr	w0, [sp, #84]
	bl	__ZN4core4hint16assert_unchecked18precondition_check17h3d2b16db344f9c42E
	b	LBB114_12
LBB114_12:
	ldr	x3, [sp, #72]
	ldr	x0, [sp, #104]
	ldr	x9, [sp, #120]
	ldr	x8, [sp, #128]
	str	x9, [sp, #176]
	str	x8, [sp, #184]
	ldr	x1, [sp, #184]
	ldr	x8, [sp, #176]
	stur	x8, [x29, #-120]
	ldur	x2, [x29, #-120]
	bl	___rust_realloc
	str	x0, [sp, #40]
	cbnz	x0, LBB114_14
	b	LBB114_13
LBB114_13:
	str	xzr, [sp, #208]
	str	xzr, [sp, #200]
	adrp	x9, l___unnamed_7@PAGE
	adrp	x8, l___unnamed_7@PAGE
	add	x8, x8, l___unnamed_7@PAGEOFF
	ldr	x9, [x9, l___unnamed_7@PAGEOFF]
	ldr	x8, [x8, #8]
	str	x9, [sp, #152]
	str	x8, [sp, #160]
	b	LBB114_10
LBB114_14:
	b	LBB114_16
LBB114_15:
	ldr	x0, [sp, #152]
	ldr	x1, [sp, #160]
	.cfi_def_cfa wsp, 432
	ldp	x29, x30, [sp, #416]
	ldp	x28, x27, [sp, #400]
	add	sp, sp, #432
	.cfi_def_cfa_offset 0
	.cfi_restore w30
	.cfi_restore w29
	.cfi_restore w27
	.cfi_restore w28
	ret
LBB114_16:
	.cfi_restore_state
	ldr	x0, [sp, #40]
	bl	__ZN4core3ptr8non_null16NonNull$LT$T$GT$13new_unchecked18precondition_check17h014695bd6199ce65E
	b	LBB114_17
LBB114_17:
	ldr	w8, [sp, #116]
	ldr	x9, [sp, #40]
	stur	x9, [x29, #-112]
	ldur	x9, [x29, #-112]
	str	x9, [sp, #208]
	ldr	x9, [sp, #208]
	str	x9, [sp, #200]
	ldr	x9, [sp, #200]
	str	x9, [sp, #192]
	ldr	x9, [sp, #192]
	str	x9, [sp, #32]
	tbnz	w8, #0, LBB114_19
	b	LBB114_18
LBB114_18:
	ldr	x8, [sp, #72]
	ldr	x9, [sp, #32]
	stur	x9, [x29, #-184]
	stur	x8, [x29, #-176]
	stur	x9, [x29, #-80]
	ldur	x9, [x29, #-80]
	stur	x9, [x29, #-88]
	ldur	x9, [x29, #-80]
	stur	x9, [x29, #-72]
	ldur	x9, [x29, #-80]
	stur	x9, [x29, #-32]
	ldur	x9, [x29, #-32]
	stur	x9, [x29, #-48]
	stur	x8, [x29, #-40]
	ldur	x9, [x29, #-48]
	ldur	x8, [x29, #-40]
	stur	x9, [x29, #-64]
	stur	x8, [x29, #-56]
	ldur	x9, [x29, #-64]
	ldur	x8, [x29, #-56]
	stur	x9, [x29, #-104]
	stur	x8, [x29, #-96]
	b	LBB114_21
LBB114_19:
	ldr	x8, [sp, #72]
	ldr	x9, [sp, #64]
	ldr	x10, [sp, #40]
	add	x10, x10, x9
	str	x10, [sp, #16]
	subs	x8, x8, x9
	str	x8, [sp, #24]
	b	LBB114_20
LBB114_20:
	ldr	x0, [sp, #16]
	mov	w8, #1
	mov	x1, x8
	str	x1, [sp, #8]
	bl	__ZN4core10intrinsics11write_bytes18precondition_check17hb8e92fd0efafaeb7E
	ldr	x9, [sp, #24]
	ldr	x8, [sp, #8]
	ldr	x0, [sp, #16]
	mul	x1, x8, x9
	bl	_bzero
	ldr	x9, [sp, #32]
	ldr	x8, [sp, #72]
	stur	x9, [x29, #-184]
	stur	x8, [x29, #-176]
	stur	x9, [x29, #-80]
	ldur	x9, [x29, #-80]
	stur	x9, [x29, #-88]
	ldur	x9, [x29, #-80]
	stur	x9, [x29, #-72]
	ldur	x9, [x29, #-80]
	stur	x9, [x29, #-32]
	ldur	x9, [x29, #-32]
	stur	x9, [x29, #-48]
	stur	x8, [x29, #-40]
	ldur	x9, [x29, #-48]
	ldur	x8, [x29, #-40]
	stur	x9, [x29, #-64]
	stur	x8, [x29, #-56]
	ldur	x9, [x29, #-64]
	ldur	x8, [x29, #-56]
	stur	x9, [x29, #-104]
	stur	x8, [x29, #-96]
	b	LBB114_21
LBB114_21:
	ldur	x0, [x29, #-104]
	bl	__ZN4core3ptr8non_null16NonNull$LT$T$GT$13new_unchecked18precondition_check17h014695bd6199ce65E
	b	LBB114_22
LBB114_22:
	ldur	x9, [x29, #-104]
	ldur	x8, [x29, #-96]
	stur	x9, [x29, #-200]
	stur	x8, [x29, #-192]
	ldur	x9, [x29, #-200]
	ldur	x8, [x29, #-192]
	str	x9, [sp, #152]
	str	x8, [sp, #160]
	b	LBB114_3
	.cfi_endproc

	.p2align	2
__ZN5alloc5slice29_$LT$impl$u20$$u5b$T$u5d$$GT$8into_vec17h19babe651bef01fbE:
	.cfi_startproc
	stp	x29, x30, [sp, #-16]!
	.cfi_def_cfa_offset 16
	mov	x29, sp
	.cfi_def_cfa w29, 16
	.cfi_offset w30, -8
	.cfi_offset w29, -16
	bl	__ZN5alloc5slice4hack8into_vec17h9d90cd5a0bc09b8aE
	.cfi_def_cfa wsp, 16
	ldp	x29, x30, [sp], #16
	.cfi_def_cfa_offset 0
	.cfi_restore w30
	.cfi_restore w29
	ret
	.cfi_endproc

	.p2align	2
__ZN5alloc5slice29_$LT$impl$u20$$u5b$T$u5d$$GT$8into_vec17h7be03de987d6fb8bE:
	.cfi_startproc
	stp	x29, x30, [sp, #-16]!
	.cfi_def_cfa_offset 16
	mov	x29, sp
	.cfi_def_cfa w29, 16
	.cfi_offset w30, -8
	.cfi_offset w29, -16
	bl	__ZN5alloc5slice4hack8into_vec17hfa6b69c04823f469E
	.cfi_def_cfa wsp, 16
	ldp	x29, x30, [sp], #16
	.cfi_def_cfa_offset 0
	.cfi_restore w30
	.cfi_restore w29
	ret
	.cfi_endproc

	.p2align	2
__ZN5alloc5slice29_$LT$impl$u20$$u5b$T$u5d$$GT$8into_vec17h84bd0202cca5e00aE:
	.cfi_startproc
	stp	x29, x30, [sp, #-16]!
	.cfi_def_cfa_offset 16
	mov	x29, sp
	.cfi_def_cfa w29, 16
	.cfi_offset w30, -8
	.cfi_offset w29, -16
	bl	__ZN5alloc5slice4hack8into_vec17h0396a8e9e64907d2E
	.cfi_def_cfa wsp, 16
	ldp	x29, x30, [sp], #16
	.cfi_def_cfa_offset 0
	.cfi_restore w30
	.cfi_restore w29
	ret
	.cfi_endproc

	.p2align	2
__ZN5alloc5slice29_$LT$impl$u20$$u5b$T$u5d$$GT$8into_vec17h864456c55cce862dE:
	.cfi_startproc
	stp	x29, x30, [sp, #-16]!
	.cfi_def_cfa_offset 16
	mov	x29, sp
	.cfi_def_cfa w29, 16
	.cfi_offset w30, -8
	.cfi_offset w29, -16
	bl	__ZN5alloc5slice4hack8into_vec17he1598fa7922191a3E
	.cfi_def_cfa wsp, 16
	ldp	x29, x30, [sp], #16
	.cfi_def_cfa_offset 0
	.cfi_restore w30
	.cfi_restore w29
	ret
	.cfi_endproc

	.p2align	2
__ZN5alloc5slice29_$LT$impl$u20$$u5b$T$u5d$$GT$8into_vec17hb7db4ecec3366c8cE:
	.cfi_startproc
	stp	x29, x30, [sp, #-16]!
	.cfi_def_cfa_offset 16
	mov	x29, sp
	.cfi_def_cfa w29, 16
	.cfi_offset w30, -8
	.cfi_offset w29, -16
	bl	__ZN5alloc5slice4hack8into_vec17h20202821441f7e07E
	.cfi_def_cfa wsp, 16
	ldp	x29, x30, [sp], #16
	.cfi_def_cfa_offset 0
	.cfi_restore w30
	.cfi_restore w29
	ret
	.cfi_endproc

	.p2align	2
__ZN5alloc5slice29_$LT$impl$u20$$u5b$T$u5d$$GT$8into_vec17he0eec73e7b4c468bE:
	.cfi_startproc
	stp	x29, x30, [sp, #-16]!
	.cfi_def_cfa_offset 16
	mov	x29, sp
	.cfi_def_cfa w29, 16
	.cfi_offset w30, -8
	.cfi_offset w29, -16
	bl	__ZN5alloc5slice4hack8into_vec17h5887b2ddba310ec9E
	.cfi_def_cfa wsp, 16
	ldp	x29, x30, [sp], #16
	.cfi_def_cfa_offset 0
	.cfi_restore w30
	.cfi_restore w29
	ret
	.cfi_endproc

	.p2align	2
__ZN5alloc5slice4hack8into_vec17h0396a8e9e64907d2E:
	.cfi_startproc
	sub	sp, sp, #64
	.cfi_def_cfa_offset 64
	stp	x29, x30, [sp, #48]
	add	x29, sp, #48
	.cfi_def_cfa w29, 16
	.cfi_offset w30, -8
	.cfi_offset w29, -16
	str	x8, [sp]
	str	x1, [sp, #8]
	str	x0, [sp, #16]
	str	x1, [sp, #24]
	ldr	x0, [sp, #16]
	ldr	x1, [sp, #24]
	bl	__ZN4core10intrinsics16retag_box_to_raw17h524749d3d092c407E
	ldr	x1, [sp, #8]
	bl	__ZN5alloc7raw_vec19RawVec$LT$T$C$A$GT$17from_raw_parts_in17h63b182ec6bf518a6E
	ldr	x8, [sp]
	mov	x9, x1
	ldr	x1, [sp, #8]
	str	x0, [x8]
	str	x9, [x8, #8]
	str	x1, [x8, #16]
	.cfi_def_cfa wsp, 64
	ldp	x29, x30, [sp, #48]
	add	sp, sp, #64
	.cfi_def_cfa_offset 0
	.cfi_restore w30
	.cfi_restore w29
	ret
	.cfi_endproc

	.p2align	2
__ZN5alloc5slice4hack8into_vec17h20202821441f7e07E:
	.cfi_startproc
	sub	sp, sp, #64
	.cfi_def_cfa_offset 64
	stp	x29, x30, [sp, #48]
	add	x29, sp, #48
	.cfi_def_cfa w29, 16
	.cfi_offset w30, -8
	.cfi_offset w29, -16
	str	x8, [sp]
	str	x1, [sp, #8]
	str	x0, [sp, #16]
	str	x1, [sp, #24]
	ldr	x0, [sp, #16]
	ldr	x1, [sp, #24]
	bl	__ZN4core10intrinsics16retag_box_to_raw17hfe6dcf2a8466911aE
	ldr	x1, [sp, #8]
	bl	__ZN5alloc7raw_vec19RawVec$LT$T$C$A$GT$17from_raw_parts_in17he190e64947a70b55E
	ldr	x8, [sp]
	mov	x9, x1
	ldr	x1, [sp, #8]
	str	x0, [x8]
	str	x9, [x8, #8]
	str	x1, [x8, #16]
	.cfi_def_cfa wsp, 64
	ldp	x29, x30, [sp, #48]
	add	sp, sp, #64
	.cfi_def_cfa_offset 0
	.cfi_restore w30
	.cfi_restore w29
	ret
	.cfi_endproc

	.p2align	2
__ZN5alloc5slice4hack8into_vec17h5887b2ddba310ec9E:
	.cfi_startproc
	sub	sp, sp, #64
	.cfi_def_cfa_offset 64
	stp	x29, x30, [sp, #48]
	add	x29, sp, #48
	.cfi_def_cfa w29, 16
	.cfi_offset w30, -8
	.cfi_offset w29, -16
	str	x8, [sp]
	str	x1, [sp, #8]
	str	x0, [sp, #16]
	str	x1, [sp, #24]
	ldr	x0, [sp, #16]
	ldr	x1, [sp, #24]
	bl	__ZN4core10intrinsics16retag_box_to_raw17h029517196ceba31fE
	ldr	x1, [sp, #8]
	bl	__ZN5alloc7raw_vec19RawVec$LT$T$C$A$GT$17from_raw_parts_in17h1158bb01aeadba84E
	ldr	x8, [sp]
	mov	x9, x1
	ldr	x1, [sp, #8]
	str	x0, [x8]
	str	x9, [x8, #8]
	str	x1, [x8, #16]
	.cfi_def_cfa wsp, 64
	ldp	x29, x30, [sp, #48]
	add	sp, sp, #64
	.cfi_def_cfa_offset 0
	.cfi_restore w30
	.cfi_restore w29
	ret
	.cfi_endproc

	.p2align	2
__ZN5alloc5slice4hack8into_vec17h9d90cd5a0bc09b8aE:
	.cfi_startproc
	sub	sp, sp, #64
	.cfi_def_cfa_offset 64
	stp	x29, x30, [sp, #48]
	add	x29, sp, #48
	.cfi_def_cfa w29, 16
	.cfi_offset w30, -8
	.cfi_offset w29, -16
	str	x8, [sp]
	str	x1, [sp, #8]
	str	x0, [sp, #16]
	str	x1, [sp, #24]
	ldr	x0, [sp, #16]
	ldr	x1, [sp, #24]
	bl	__ZN4core10intrinsics16retag_box_to_raw17h2621a69217330d71E
	ldr	x1, [sp, #8]
	bl	__ZN5alloc7raw_vec19RawVec$LT$T$C$A$GT$17from_raw_parts_in17hc7697f801d8f9e8eE
	ldr	x8, [sp]
	mov	x9, x1
	ldr	x1, [sp, #8]
	str	x0, [x8]
	str	x9, [x8, #8]
	str	x1, [x8, #16]
	.cfi_def_cfa wsp, 64
	ldp	x29, x30, [sp, #48]
	add	sp, sp, #64
	.cfi_def_cfa_offset 0
	.cfi_restore w30
	.cfi_restore w29
	ret
	.cfi_endproc

	.p2align	2
__ZN5alloc5slice4hack8into_vec17he1598fa7922191a3E:
	.cfi_startproc
	sub	sp, sp, #64
	.cfi_def_cfa_offset 64
	stp	x29, x30, [sp, #48]
	add	x29, sp, #48
	.cfi_def_cfa w29, 16
	.cfi_offset w30, -8
	.cfi_offset w29, -16
	str	x8, [sp]
	str	x1, [sp, #8]
	str	x0, [sp, #16]
	str	x1, [sp, #24]
	ldr	x0, [sp, #16]
	ldr	x1, [sp, #24]
	bl	__ZN4core10intrinsics16retag_box_to_raw17hc95473bcfbf489a7E
	ldr	x1, [sp, #8]
	bl	__ZN5alloc7raw_vec19RawVec$LT$T$C$A$GT$17from_raw_parts_in17hf740983afe6d5cb7E
	ldr	x8, [sp]
	mov	x9, x1
	ldr	x1, [sp, #8]
	str	x0, [x8]
	str	x9, [x8, #8]
	str	x1, [x8, #16]
	.cfi_def_cfa wsp, 64
	ldp	x29, x30, [sp, #48]
	add	sp, sp, #64
	.cfi_def_cfa_offset 0
	.cfi_restore w30
	.cfi_restore w29
	ret
	.cfi_endproc

	.p2align	2
__ZN5alloc5slice4hack8into_vec17hfa6b69c04823f469E:
	.cfi_startproc
	sub	sp, sp, #64
	.cfi_def_cfa_offset 64
	stp	x29, x30, [sp, #48]
	add	x29, sp, #48
	.cfi_def_cfa w29, 16
	.cfi_offset w30, -8
	.cfi_offset w29, -16
	str	x8, [sp]
	str	x1, [sp, #8]
	str	x0, [sp, #16]
	str	x1, [sp, #24]
	ldr	x0, [sp, #16]
	ldr	x1, [sp, #24]
	bl	__ZN4core10intrinsics16retag_box_to_raw17hf1c7cbc81a74151dE
	ldr	x1, [sp, #8]
	bl	__ZN5alloc7raw_vec19RawVec$LT$T$C$A$GT$17from_raw_parts_in17h5326c119ec5fca9eE
	ldr	x8, [sp]
	mov	x9, x1
	ldr	x1, [sp, #8]
	str	x0, [x8]
	str	x9, [x8, #8]
	str	x1, [x8, #16]
	.cfi_def_cfa wsp, 64
	ldp	x29, x30, [sp, #48]
	add	sp, sp, #64
	.cfi_def_cfa_offset 0
	.cfi_restore w30
	.cfi_restore w29
	ret
	.cfi_endproc

	.p2align	2
__ZN5alloc7raw_vec11finish_grow17hd3b44fe622d115baE:
	.cfi_startproc
	sub	sp, sp, #304
	.cfi_def_cfa_offset 304
	stp	x28, x27, [sp, #272]
	stp	x29, x30, [sp, #288]
	add	x29, sp, #288
	.cfi_def_cfa w29, 16
	.cfi_offset w30, -8
	.cfi_offset w29, -16
	.cfi_offset w27, -24
	.cfi_offset w28, -32
	str	x8, [sp, #24]
	str	x2, [sp, #32]
	str	x3, [sp, #40]
	str	x0, [sp, #48]
	str	x1, [sp, #56]
	ldr	x9, [sp, #48]
	mov	x8, #0
	subs	x9, x9, #0
	csinc	x8, x8, xzr, ne
	cbnz	x8, LBB127_2
	b	LBB127_1
LBB127_1:
	ldr	x8, [sp, #32]
	ldr	x10, [sp, #48]
	ldr	x9, [sp, #56]
	str	x10, [sp, #112]
	str	x9, [sp, #120]
	str	xzr, [sp, #104]
	ldr	x10, [sp, #112]
	ldr	x9, [sp, #120]
	str	x10, [sp, #88]
	str	x9, [sp, #96]
	str	xzr, [sp, #80]
	ldr	x10, [sp, #88]
	ldr	x9, [sp, #96]
	str	x10, [sp, #64]
	str	x9, [sp, #72]
	ldr	x8, [x8, #8]
	subs	x8, x8, #0
	cset	x8, ne
	subs	x8, x8, #1
	b.eq	LBB127_3
	b	LBB127_4
LBB127_2:
	ldr	x9, [sp, #24]
	adrp	x10, l___unnamed_7@PAGE
	adrp	x8, l___unnamed_7@PAGE
	add	x8, x8, l___unnamed_7@PAGEOFF
	ldr	x10, [x10, l___unnamed_7@PAGEOFF]
	ldr	x8, [x8, #8]
	str	x10, [sp, #112]
	str	x8, [sp, #120]
	mov	w8, #1
	str	x8, [sp, #104]
	ldr	x11, [sp, #112]
	ldr	x10, [sp, #120]
	stur	x11, [x29, #-96]
	stur	x10, [x29, #-88]
	ldur	x11, [x29, #-96]
	ldur	x10, [x29, #-88]
	str	x11, [sp, #88]
	str	x10, [sp, #96]
	str	x8, [sp, #80]
	ldr	x11, [sp, #88]
	ldr	x10, [sp, #96]
	str	x11, [sp, #128]
	str	x10, [sp, #136]
	ldr	x11, [sp, #128]
	ldr	x10, [sp, #136]
	stur	x11, [x29, #-80]
	stur	x10, [x29, #-72]
	ldur	x11, [x29, #-80]
	ldur	x10, [x29, #-72]
	str	x11, [x9, #8]
	str	x10, [x9, #16]
	str	x8, [x9]
	b	LBB127_11
LBB127_3:
	ldr	x8, [sp, #32]
	ldr	x9, [x8]
	str	x9, [sp, #8]
	ldr	x9, [x8, #8]
	ldr	x8, [x8, #16]
	stur	x9, [x29, #-128]
	stur	x8, [x29, #-120]
	ldur	x8, [x29, #-128]
	stur	x8, [x29, #-64]
	ldur	x8, [x29, #-64]
	ldr	x9, [sp, #64]
	stur	x9, [x29, #-56]
	ldur	x9, [x29, #-56]
	subs	x8, x8, x9
	cset	w8, eq
	str	w8, [sp, #20]
	b	LBB127_5
LBB127_4:
	ldr	x0, [sp, #40]
	ldr	x1, [sp, #64]
	ldr	x2, [sp, #72]
	bl	__ZN63_$LT$alloc..alloc..Global$u20$as$u20$core..alloc..Allocator$GT$8allocate17habc80d2b6492fff3E
	str	x0, [sp, #144]
	str	x1, [sp, #152]
	b	LBB127_7
LBB127_5:
	ldr	w0, [sp, #20]
	bl	__ZN4core4hint16assert_unchecked18precondition_check17h3d2b16db344f9c42E
	b	LBB127_6
LBB127_6:
	ldr	x1, [sp, #8]
	ldr	x0, [sp, #40]
	ldur	x2, [x29, #-128]
	ldur	x3, [x29, #-120]
	ldr	x4, [sp, #64]
	ldr	x5, [sp, #72]
	bl	__ZN63_$LT$alloc..alloc..Global$u20$as$u20$core..alloc..Allocator$GT$4grow17h1104c178e6bcff75E
	str	x0, [sp, #144]
	str	x1, [sp, #152]
	b	LBB127_7
LBB127_7:
	ldr	x9, [sp, #144]
	ldr	x8, [sp, #152]
	stur	x9, [x29, #-112]
	stur	x8, [x29, #-104]
	ldur	x9, [x29, #-112]
	mov	x8, #0
	subs	x9, x9, #0
	csinc	x8, x8, xzr, ne
	cbnz	x8, LBB127_9
	b	LBB127_8
LBB127_8:
	ldr	x8, [sp, #24]
	ldur	x10, [x29, #-112]
	ldur	x9, [x29, #-104]
	str	x10, [x8, #8]
	str	x9, [x8, #16]
	str	xzr, [x8]
	b	LBB127_10
LBB127_9:
	ldr	x9, [sp, #24]
	ldr	x10, [sp, #64]
	ldr	x8, [sp, #72]
	stur	x10, [x29, #-32]
	stur	x8, [x29, #-24]
	ldur	x10, [x29, #-32]
	ldur	x8, [x29, #-24]
	stur	x10, [x29, #-48]
	stur	x8, [x29, #-40]
	ldur	x10, [x29, #-48]
	ldur	x8, [x29, #-40]
	str	x10, [x9, #8]
	str	x8, [x9, #16]
	mov	w8, #1
	str	x8, [x9]
	b	LBB127_10
LBB127_10:
	b	LBB127_11
LBB127_11:
	.cfi_def_cfa wsp, 304
	ldp	x29, x30, [sp, #288]
	ldp	x28, x27, [sp, #272]
	add	sp, sp, #304
	.cfi_def_cfa_offset 0
	.cfi_restore w30
	.cfi_restore w29
	.cfi_restore w27
	.cfi_restore w28
	ret
	.cfi_endproc

	.p2align	2
__ZN5alloc7raw_vec14handle_reserve17h533dacd39ebbbfbbE:
	.cfi_startproc
	sub	sp, sp, #80
	.cfi_def_cfa_offset 80
	stp	x29, x30, [sp, #64]
	add	x29, sp, #64
	.cfi_def_cfa w29, 16
	.cfi_offset w30, -8
	.cfi_offset w29, -16
	.cfi_remember_state
	str	x0, [sp]
	str	x1, [sp, #8]
	ldr	x8, [sp]
	mov	x9, #-9223372036854775807
	subs	x8, x8, x9
	cset	x8, ne
	cbnz	x8, LBB128_2
	b	LBB128_1
LBB128_1:
	mov	x8, #-9223372036854775807
	str	x8, [sp, #16]
	b	LBB128_3
LBB128_2:
	ldr	x9, [sp]
	ldr	x8, [sp, #8]
	stur	x9, [x29, #-16]
	stur	x8, [x29, #-8]
	ldur	x8, [x29, #-16]
	subs	x8, x8, #0
	cset	x8, ne
	cbz	x8, LBB128_4
	b	LBB128_5
LBB128_3:
	.cfi_def_cfa wsp, 80
	ldp	x29, x30, [sp, #64]
	add	sp, sp, #80
	.cfi_def_cfa_offset 0
	.cfi_restore w30
	.cfi_restore w29
	ret
LBB128_4:
	.cfi_restore_state
	bl	__ZN5alloc7raw_vec17capacity_overflow17hca84ee27eee447d1E
LBB128_5:
	ldur	x9, [x29, #-16]
	ldur	x8, [x29, #-8]
	str	x9, [sp, #32]
	str	x8, [sp, #40]
	ldr	x9, [sp, #32]
	ldr	x8, [sp, #40]
	str	x9, [sp, #16]
	str	x8, [sp, #24]
	ldr	x8, [sp, #16]
	mov	x9, #-9223372036854775807
	subs	x8, x8, x9
	cset	x8, ne
	cbz	x8, LBB128_3
	b	LBB128_6
LBB128_6:
	ldr	x0, [sp, #16]
	ldr	x1, [sp, #24]
	bl	__ZN5alloc5alloc18handle_alloc_error17h2a00f3202443143aE
	.cfi_endproc

	.p2align	2
__ZN5alloc7raw_vec19RawVec$LT$T$C$A$GT$14current_memory17h06466c0943309046E:
	.cfi_startproc
	sub	sp, sp, #64
	.cfi_def_cfa_offset 64
	str	x8, [sp]
	str	x0, [sp, #8]
	b	LBB129_1
LBB129_1:
	ldr	x8, [sp, #8]
	ldr	x8, [x8]
	cbnz	x8, LBB129_3
	b	LBB129_2
LBB129_2:
	b	LBB129_4
LBB129_3:
	ldr	x9, [sp]
	ldr	x8, [sp, #8]
	ldr	x11, [x8]
	mov	w10, #56
	mul	x10, x10, x11
	str	x10, [sp, #24]
	mov	w10, #8
	str	x10, [sp, #16]
	ldr	x8, [x8, #8]
	str	x8, [sp, #56]
	ldr	x8, [sp, #56]
	str	x8, [sp, #32]
	ldr	x10, [sp, #16]
	ldr	x8, [sp, #24]
	str	x10, [sp, #40]
	str	x8, [sp, #48]
	ldr	q0, [sp, #32]
	str	q0, [x9]
	ldr	x8, [sp, #48]
	str	x8, [x9, #16]
	b	LBB129_5
LBB129_4:
	ldr	x8, [sp]
	str	xzr, [x8, #8]
	b	LBB129_5
LBB129_5:
	add	sp, sp, #64
	.cfi_def_cfa_offset 0
	ret
	.cfi_endproc

	.p2align	2
__ZN5alloc7raw_vec19RawVec$LT$T$C$A$GT$14current_memory17h1496de62c603abeeE:
	.cfi_startproc
	sub	sp, sp, #64
	.cfi_def_cfa_offset 64
	str	x8, [sp]
	str	x0, [sp, #8]
	b	LBB130_1
LBB130_1:
	ldr	x8, [sp, #8]
	ldr	x8, [x8]
	cbnz	x8, LBB130_3
	b	LBB130_2
LBB130_2:
	b	LBB130_4
LBB130_3:
	ldr	x9, [sp]
	ldr	x8, [sp, #8]
	ldr	x11, [x8]
	mov	w10, #56
	mul	x10, x10, x11
	str	x10, [sp, #24]
	mov	w10, #8
	str	x10, [sp, #16]
	ldr	x8, [x8, #8]
	str	x8, [sp, #56]
	ldr	x8, [sp, #56]
	str	x8, [sp, #32]
	ldr	x10, [sp, #16]
	ldr	x8, [sp, #24]
	str	x10, [sp, #40]
	str	x8, [sp, #48]
	ldr	q0, [sp, #32]
	str	q0, [x9]
	ldr	x8, [sp, #48]
	str	x8, [x9, #16]
	b	LBB130_5
LBB130_4:
	ldr	x8, [sp]
	str	xzr, [x8, #8]
	b	LBB130_5
LBB130_5:
	add	sp, sp, #64
	.cfi_def_cfa_offset 0
	ret
	.cfi_endproc

	.p2align	2
__ZN5alloc7raw_vec19RawVec$LT$T$C$A$GT$14current_memory17h1da824d8dc9d50e6E:
	.cfi_startproc
	sub	sp, sp, #64
	.cfi_def_cfa_offset 64
	str	x8, [sp]
	str	x0, [sp, #8]
	b	LBB131_1
LBB131_1:
	ldr	x8, [sp, #8]
	ldr	x8, [x8]
	cbnz	x8, LBB131_3
	b	LBB131_2
LBB131_2:
	b	LBB131_4
LBB131_3:
	ldr	x9, [sp]
	ldr	x8, [sp, #8]
	ldr	x11, [x8]
	mov	w10, #48
	mul	x10, x10, x11
	str	x10, [sp, #24]
	mov	w10, #8
	str	x10, [sp, #16]
	ldr	x8, [x8, #8]
	str	x8, [sp, #56]
	ldr	x8, [sp, #56]
	str	x8, [sp, #32]
	ldr	x10, [sp, #16]
	ldr	x8, [sp, #24]
	str	x10, [sp, #40]
	str	x8, [sp, #48]
	ldr	q0, [sp, #32]
	str	q0, [x9]
	ldr	x8, [sp, #48]
	str	x8, [x9, #16]
	b	LBB131_5
LBB131_4:
	ldr	x8, [sp]
	str	xzr, [x8, #8]
	b	LBB131_5
LBB131_5:
	add	sp, sp, #64
	.cfi_def_cfa_offset 0
	ret
	.cfi_endproc

	.p2align	2
__ZN5alloc7raw_vec19RawVec$LT$T$C$A$GT$14current_memory17h7b2d212bfa12e6b0E:
	.cfi_startproc
	sub	sp, sp, #64
	.cfi_def_cfa_offset 64
	str	x8, [sp]
	str	x0, [sp, #8]
	b	LBB132_1
LBB132_1:
	ldr	x8, [sp, #8]
	ldr	x8, [x8]
	cbnz	x8, LBB132_3
	b	LBB132_2
LBB132_2:
	b	LBB132_4
LBB132_3:
	ldr	x9, [sp]
	ldr	x8, [sp, #8]
	ldr	x11, [x8]
	mov	w10, #16
	mul	x10, x10, x11
	str	x10, [sp, #24]
	mov	w10, #8
	str	x10, [sp, #16]
	ldr	x8, [x8, #8]
	str	x8, [sp, #56]
	ldr	x8, [sp, #56]
	str	x8, [sp, #32]
	ldr	x10, [sp, #16]
	ldr	x8, [sp, #24]
	str	x10, [sp, #40]
	str	x8, [sp, #48]
	ldr	q0, [sp, #32]
	str	q0, [x9]
	ldr	x8, [sp, #48]
	str	x8, [x9, #16]
	b	LBB132_5
LBB132_4:
	ldr	x8, [sp]
	str	xzr, [x8, #8]
	b	LBB132_5
LBB132_5:
	add	sp, sp, #64
	.cfi_def_cfa_offset 0
	ret
	.cfi_endproc

	.p2align	2
__ZN5alloc7raw_vec19RawVec$LT$T$C$A$GT$14current_memory17h89b16a4e698eba2bE:
	.cfi_startproc
	sub	sp, sp, #64
	.cfi_def_cfa_offset 64
	str	x8, [sp]
	str	x0, [sp, #8]
	b	LBB133_1
LBB133_1:
	ldr	x8, [sp, #8]
	ldr	x8, [x8]
	cbnz	x8, LBB133_3
	b	LBB133_2
LBB133_2:
	b	LBB133_4
LBB133_3:
	ldr	x9, [sp]
	ldr	x8, [sp, #8]
	ldr	x11, [x8]
	mov	w10, #16
	mul	x10, x10, x11
	str	x10, [sp, #24]
	mov	w10, #8
	str	x10, [sp, #16]
	ldr	x8, [x8, #8]
	str	x8, [sp, #56]
	ldr	x8, [sp, #56]
	str	x8, [sp, #32]
	ldr	x10, [sp, #16]
	ldr	x8, [sp, #24]
	str	x10, [sp, #40]
	str	x8, [sp, #48]
	ldr	q0, [sp, #32]
	str	q0, [x9]
	ldr	x8, [sp, #48]
	str	x8, [x9, #16]
	b	LBB133_5
LBB133_4:
	ldr	x8, [sp]
	str	xzr, [x8, #8]
	b	LBB133_5
LBB133_5:
	add	sp, sp, #64
	.cfi_def_cfa_offset 0
	ret
	.cfi_endproc

	.p2align	2
__ZN5alloc7raw_vec19RawVec$LT$T$C$A$GT$14current_memory17h98b026aacb6e4e14E:
	.cfi_startproc
	sub	sp, sp, #64
	.cfi_def_cfa_offset 64
	str	x8, [sp]
	str	x0, [sp, #8]
	b	LBB134_1
LBB134_1:
	ldr	x8, [sp, #8]
	ldr	x8, [x8]
	cbnz	x8, LBB134_3
	b	LBB134_2
LBB134_2:
	b	LBB134_4
LBB134_3:
	ldr	x9, [sp]
	ldr	x8, [sp, #8]
	ldr	x11, [x8]
	mov	w10, #48
	mul	x10, x10, x11
	str	x10, [sp, #24]
	mov	w10, #8
	str	x10, [sp, #16]
	ldr	x8, [x8, #8]
	str	x8, [sp, #56]
	ldr	x8, [sp, #56]
	str	x8, [sp, #32]
	ldr	x10, [sp, #16]
	ldr	x8, [sp, #24]
	str	x10, [sp, #40]
	str	x8, [sp, #48]
	ldr	q0, [sp, #32]
	str	q0, [x9]
	ldr	x8, [sp, #48]
	str	x8, [x9, #16]
	b	LBB134_5
LBB134_4:
	ldr	x8, [sp]
	str	xzr, [x8, #8]
	b	LBB134_5
LBB134_5:
	add	sp, sp, #64
	.cfi_def_cfa_offset 0
	ret
	.cfi_endproc

	.p2align	2
__ZN5alloc7raw_vec19RawVec$LT$T$C$A$GT$14current_memory17hc9a18b02e328c140E:
	.cfi_startproc
	sub	sp, sp, #64
	.cfi_def_cfa_offset 64
	str	x8, [sp]
	str	x0, [sp, #8]
	b	LBB135_1
LBB135_1:
	ldr	x8, [sp, #8]
	ldr	x8, [x8]
	cbnz	x8, LBB135_3
	b	LBB135_2
LBB135_2:
	b	LBB135_4
LBB135_3:
	ldr	x9, [sp]
	ldr	x8, [sp, #8]
	ldr	x11, [x8]
	mov	w10, #8
	mul	x11, x10, x11
	str	x11, [sp, #24]
	str	x10, [sp, #16]
	ldr	x8, [x8, #8]
	str	x8, [sp, #56]
	ldr	x8, [sp, #56]
	str	x8, [sp, #32]
	ldr	x10, [sp, #16]
	ldr	x8, [sp, #24]
	str	x10, [sp, #40]
	str	x8, [sp, #48]
	ldr	q0, [sp, #32]
	str	q0, [x9]
	ldr	x8, [sp, #48]
	str	x8, [x9, #16]
	b	LBB135_5
LBB135_4:
	ldr	x8, [sp]
	str	xzr, [x8, #8]
	b	LBB135_5
LBB135_5:
	add	sp, sp, #64
	.cfi_def_cfa_offset 0
	ret
	.cfi_endproc

	.p2align	2
__ZN5alloc7raw_vec19RawVec$LT$T$C$A$GT$14current_memory17hd12c8d1d3bd6f368E:
	.cfi_startproc
	sub	sp, sp, #64
	.cfi_def_cfa_offset 64
	str	x8, [sp]
	str	x0, [sp, #8]
	b	LBB136_1
LBB136_1:
	ldr	x8, [sp, #8]
	ldr	x8, [x8]
	cbnz	x8, LBB136_3
	b	LBB136_2
LBB136_2:
	b	LBB136_4
LBB136_3:
	ldr	x9, [sp]
	ldr	x8, [sp, #8]
	ldr	x11, [x8]
	mov	w10, #104
	mul	x10, x10, x11
	str	x10, [sp, #24]
	mov	w10, #8
	str	x10, [sp, #16]
	ldr	x8, [x8, #8]
	str	x8, [sp, #56]
	ldr	x8, [sp, #56]
	str	x8, [sp, #32]
	ldr	x10, [sp, #16]
	ldr	x8, [sp, #24]
	str	x10, [sp, #40]
	str	x8, [sp, #48]
	ldr	q0, [sp, #32]
	str	q0, [x9]
	ldr	x8, [sp, #48]
	str	x8, [x9, #16]
	b	LBB136_5
LBB136_4:
	ldr	x8, [sp]
	str	xzr, [x8, #8]
	b	LBB136_5
LBB136_5:
	add	sp, sp, #64
	.cfi_def_cfa_offset 0
	ret
	.cfi_endproc

	.p2align	2
__ZN5alloc7raw_vec19RawVec$LT$T$C$A$GT$14grow_amortized17h1a1c82e1be02e7d3E:
	.cfi_startproc
	sub	sp, sp, #352
	.cfi_def_cfa_offset 352
	stp	x28, x27, [sp, #320]
	stp	x29, x30, [sp, #336]
	add	x29, sp, #336
	.cfi_def_cfa w29, 16
	.cfi_offset w30, -8
	.cfi_offset w29, -16
	.cfi_offset w27, -24
	.cfi_offset w28, -32
	.cfi_remember_state
	str	x0, [sp, #48]
	str	x1, [sp, #56]
	str	x2, [sp, #64]
	b	LBB137_1
LBB137_1:
	ldr	x8, [sp, #56]
	ldr	x9, [sp, #64]
	adds	x8, x8, x9
	str	x8, [sp, #40]
	cset	w8, hs
	sturb	w8, [x29, #-17]
	ldurb	w8, [x29, #-17]
	tbnz	w8, #0, LBB137_3
	b	LBB137_2
LBB137_2:
	ldr	x8, [sp, #48]
	ldr	x9, [sp, #40]
	str	x9, [sp, #128]
	mov	w9, #1
	str	x9, [sp, #120]
	ldr	x9, [sp, #128]
	str	x9, [sp, #112]
	mov	x9, #-9223372036854775807
	str	x9, [sp, #104]
	ldr	x10, [sp, #112]
	str	x10, [sp, #96]
	str	x9, [sp, #88]
	ldr	x1, [sp, #96]
	ldr	x8, [x8]
	lsl	x0, x8, #1
	bl	__ZN4core3cmp6max_by17h43b9b5ac048f07d6E
	mov	x1, x0
	mov	w8, #4
	mov	x0, x8
	bl	__ZN4core3cmp6max_by17h43b9b5ac048f07d6E
	mov	x2, x0
	str	x2, [sp, #8]
	mov	w8, #16
	mov	x0, x8
	mov	w8, #8
	mov	x1, x8
	bl	__ZN4core5alloc6layout6Layout5array5inner17h6f4b5b5253e62597E
	mov	x2, x0
	ldr	x0, [sp, #48]
	str	x2, [sp, #16]
	str	x1, [sp, #24]
	sub	x8, x29, #136
	str	x8, [sp, #32]
	bl	__ZN5alloc7raw_vec19RawVec$LT$T$C$A$GT$14current_memory17h7b2d212bfa12e6b0E
	ldr	x8, [sp, #48]
	ldr	x0, [sp, #16]
	ldr	x1, [sp, #24]
	ldr	x2, [sp, #32]
	add	x3, x8, #16
	sub	x8, x29, #160
	bl	__ZN5alloc7raw_vec11finish_grow17hd3b44fe622d115baE
	ldur	x8, [x29, #-160]
	cbz	x8, LBB137_4
	b	LBB137_5
LBB137_3:
	adrp	x9, l___unnamed_7@PAGE
	adrp	x8, l___unnamed_7@PAGE
	add	x8, x8, l___unnamed_7@PAGEOFF
	ldr	x11, [x9, l___unnamed_7@PAGEOFF]
	ldr	x10, [x8, #8]
	str	x11, [sp, #120]
	str	x10, [sp, #128]
	ldr	x9, [x9, l___unnamed_7@PAGEOFF]
	ldr	x8, [x8, #8]
	str	x9, [sp, #104]
	str	x8, [sp, #112]
	ldr	x9, [sp, #104]
	ldr	x8, [sp, #112]
	stur	x9, [x29, #-96]
	stur	x8, [x29, #-88]
	ldur	x9, [x29, #-96]
	ldur	x8, [x29, #-88]
	str	x9, [sp, #88]
	str	x8, [sp, #96]
	ldr	x9, [sp, #88]
	ldr	x8, [sp, #96]
	str	x9, [sp, #136]
	str	x8, [sp, #144]
	ldr	x9, [sp, #136]
	ldr	x8, [sp, #144]
	stur	x9, [x29, #-80]
	stur	x8, [x29, #-72]
	ldur	x9, [x29, #-80]
	ldur	x8, [x29, #-72]
	str	x9, [sp, #72]
	str	x8, [sp, #80]
	b	LBB137_7
LBB137_4:
	ldr	x9, [sp, #48]
	ldr	x8, [sp, #8]
	ldur	x11, [x29, #-152]
	ldur	x10, [x29, #-144]
	str	x11, [sp, #160]
	str	x10, [sp, #168]
	str	xzr, [sp, #152]
	ldr	x10, [sp, #160]
	stur	x10, [x29, #-40]
	ldur	x10, [x29, #-40]
	stur	x10, [x29, #-48]
	ldur	x10, [x29, #-48]
	str	x10, [x9, #8]
	stur	x8, [x29, #-32]
	ldur	x8, [x29, #-32]
	str	x8, [x9]
	adrp	x9, l___unnamed_23@PAGE
	adrp	x8, l___unnamed_23@PAGE
	add	x8, x8, l___unnamed_23@PAGEOFF
	ldr	x9, [x9, l___unnamed_23@PAGEOFF]
	ldr	x8, [x8, #8]
	str	x9, [sp, #72]
	str	x8, [sp, #80]
	b	LBB137_6
LBB137_5:
	ldur	x9, [x29, #-152]
	ldur	x8, [x29, #-144]
	stur	x9, [x29, #-64]
	stur	x8, [x29, #-56]
	ldur	x9, [x29, #-64]
	ldur	x8, [x29, #-56]
	str	x9, [sp, #160]
	str	x8, [sp, #168]
	mov	w8, #1
	str	x8, [sp, #152]
	ldr	x9, [sp, #160]
	ldr	x8, [sp, #168]
	stur	x9, [x29, #-112]
	stur	x8, [x29, #-104]
	ldur	x9, [x29, #-112]
	ldur	x8, [x29, #-104]
	str	x9, [sp, #72]
	str	x8, [sp, #80]
	b	LBB137_7
LBB137_6:
	ldr	x0, [sp, #72]
	ldr	x1, [sp, #80]
	.cfi_def_cfa wsp, 352
	ldp	x29, x30, [sp, #336]
	ldp	x28, x27, [sp, #320]
	add	sp, sp, #352
	.cfi_def_cfa_offset 0
	.cfi_restore w30
	.cfi_restore w29
	.cfi_restore w27
	.cfi_restore w28
	ret
LBB137_7:
	.cfi_restore_state
	b	LBB137_6
	.cfi_endproc

	.p2align	2
__ZN5alloc7raw_vec19RawVec$LT$T$C$A$GT$14grow_amortized17h3f8eda4e4276eca6E:
	.cfi_startproc
	sub	sp, sp, #352
	.cfi_def_cfa_offset 352
	stp	x28, x27, [sp, #320]
	stp	x29, x30, [sp, #336]
	add	x29, sp, #336
	.cfi_def_cfa w29, 16
	.cfi_offset w30, -8
	.cfi_offset w29, -16
	.cfi_offset w27, -24
	.cfi_offset w28, -32
	.cfi_remember_state
	str	x0, [sp, #48]
	str	x1, [sp, #56]
	str	x2, [sp, #64]
	b	LBB138_1
LBB138_1:
	ldr	x8, [sp, #56]
	ldr	x9, [sp, #64]
	adds	x8, x8, x9
	str	x8, [sp, #40]
	cset	w8, hs
	sturb	w8, [x29, #-17]
	ldurb	w8, [x29, #-17]
	tbnz	w8, #0, LBB138_3
	b	LBB138_2
LBB138_2:
	ldr	x8, [sp, #48]
	ldr	x9, [sp, #40]
	str	x9, [sp, #128]
	mov	w9, #1
	str	x9, [sp, #120]
	ldr	x9, [sp, #128]
	str	x9, [sp, #112]
	mov	x9, #-9223372036854775807
	str	x9, [sp, #104]
	ldr	x10, [sp, #112]
	str	x10, [sp, #96]
	str	x9, [sp, #88]
	ldr	x1, [sp, #96]
	ldr	x8, [x8]
	lsl	x0, x8, #1
	bl	__ZN4core3cmp6max_by17h43b9b5ac048f07d6E
	mov	x1, x0
	mov	w8, #4
	mov	x0, x8
	bl	__ZN4core3cmp6max_by17h43b9b5ac048f07d6E
	mov	x2, x0
	str	x2, [sp, #8]
	mov	w8, #8
	mov	x1, x8
	mov	x0, x1
	bl	__ZN4core5alloc6layout6Layout5array5inner17h6f4b5b5253e62597E
	mov	x2, x0
	ldr	x0, [sp, #48]
	str	x2, [sp, #16]
	str	x1, [sp, #24]
	sub	x8, x29, #136
	str	x8, [sp, #32]
	bl	__ZN5alloc7raw_vec19RawVec$LT$T$C$A$GT$14current_memory17hc9a18b02e328c140E
	ldr	x8, [sp, #48]
	ldr	x0, [sp, #16]
	ldr	x1, [sp, #24]
	ldr	x2, [sp, #32]
	add	x3, x8, #16
	sub	x8, x29, #160
	bl	__ZN5alloc7raw_vec11finish_grow17hd3b44fe622d115baE
	ldur	x8, [x29, #-160]
	cbz	x8, LBB138_4
	b	LBB138_5
LBB138_3:
	adrp	x9, l___unnamed_7@PAGE
	adrp	x8, l___unnamed_7@PAGE
	add	x8, x8, l___unnamed_7@PAGEOFF
	ldr	x11, [x9, l___unnamed_7@PAGEOFF]
	ldr	x10, [x8, #8]
	str	x11, [sp, #120]
	str	x10, [sp, #128]
	ldr	x9, [x9, l___unnamed_7@PAGEOFF]
	ldr	x8, [x8, #8]
	str	x9, [sp, #104]
	str	x8, [sp, #112]
	ldr	x9, [sp, #104]
	ldr	x8, [sp, #112]
	stur	x9, [x29, #-96]
	stur	x8, [x29, #-88]
	ldur	x9, [x29, #-96]
	ldur	x8, [x29, #-88]
	str	x9, [sp, #88]
	str	x8, [sp, #96]
	ldr	x9, [sp, #88]
	ldr	x8, [sp, #96]
	str	x9, [sp, #136]
	str	x8, [sp, #144]
	ldr	x9, [sp, #136]
	ldr	x8, [sp, #144]
	stur	x9, [x29, #-80]
	stur	x8, [x29, #-72]
	ldur	x9, [x29, #-80]
	ldur	x8, [x29, #-72]
	str	x9, [sp, #72]
	str	x8, [sp, #80]
	b	LBB138_7
LBB138_4:
	ldr	x9, [sp, #48]
	ldr	x8, [sp, #8]
	ldur	x11, [x29, #-152]
	ldur	x10, [x29, #-144]
	str	x11, [sp, #160]
	str	x10, [sp, #168]
	str	xzr, [sp, #152]
	ldr	x10, [sp, #160]
	stur	x10, [x29, #-40]
	ldur	x10, [x29, #-40]
	stur	x10, [x29, #-48]
	ldur	x10, [x29, #-48]
	str	x10, [x9, #8]
	stur	x8, [x29, #-32]
	ldur	x8, [x29, #-32]
	str	x8, [x9]
	adrp	x9, l___unnamed_23@PAGE
	adrp	x8, l___unnamed_23@PAGE
	add	x8, x8, l___unnamed_23@PAGEOFF
	ldr	x9, [x9, l___unnamed_23@PAGEOFF]
	ldr	x8, [x8, #8]
	str	x9, [sp, #72]
	str	x8, [sp, #80]
	b	LBB138_6
LBB138_5:
	ldur	x9, [x29, #-152]
	ldur	x8, [x29, #-144]
	stur	x9, [x29, #-64]
	stur	x8, [x29, #-56]
	ldur	x9, [x29, #-64]
	ldur	x8, [x29, #-56]
	str	x9, [sp, #160]
	str	x8, [sp, #168]
	mov	w8, #1
	str	x8, [sp, #152]
	ldr	x9, [sp, #160]
	ldr	x8, [sp, #168]
	stur	x9, [x29, #-112]
	stur	x8, [x29, #-104]
	ldur	x9, [x29, #-112]
	ldur	x8, [x29, #-104]
	str	x9, [sp, #72]
	str	x8, [sp, #80]
	b	LBB138_7
LBB138_6:
	ldr	x0, [sp, #72]
	ldr	x1, [sp, #80]
	.cfi_def_cfa wsp, 352
	ldp	x29, x30, [sp, #336]
	ldp	x28, x27, [sp, #320]
	add	sp, sp, #352
	.cfi_def_cfa_offset 0
	.cfi_restore w30
	.cfi_restore w29
	.cfi_restore w27
	.cfi_restore w28
	ret
LBB138_7:
	.cfi_restore_state
	b	LBB138_6
	.cfi_endproc

	.p2align	2
__ZN5alloc7raw_vec19RawVec$LT$T$C$A$GT$16reserve_for_push17hd59edee4349f66d8E:
	.cfi_startproc
	stp	x29, x30, [sp, #-16]!
	.cfi_def_cfa_offset 16
	mov	x29, sp
	.cfi_def_cfa w29, 16
	.cfi_offset w30, -8
	.cfi_offset w29, -16
	mov	w8, #1
	mov	x2, x8
	bl	__ZN5alloc7raw_vec19RawVec$LT$T$C$A$GT$14grow_amortized17h3f8eda4e4276eca6E
	bl	__ZN5alloc7raw_vec14handle_reserve17h533dacd39ebbbfbbE
	.cfi_def_cfa wsp, 16
	ldp	x29, x30, [sp], #16
	.cfi_def_cfa_offset 0
	.cfi_restore w30
	.cfi_restore w29
	ret
	.cfi_endproc

	.p2align	2
__ZN5alloc7raw_vec19RawVec$LT$T$C$A$GT$16reserve_for_push17heb9b076b3a0b5e8eE:
	.cfi_startproc
	stp	x29, x30, [sp, #-16]!
	.cfi_def_cfa_offset 16
	mov	x29, sp
	.cfi_def_cfa w29, 16
	.cfi_offset w30, -8
	.cfi_offset w29, -16
	mov	w8, #1
	mov	x2, x8
	bl	__ZN5alloc7raw_vec19RawVec$LT$T$C$A$GT$14grow_amortized17h1a1c82e1be02e7d3E
	bl	__ZN5alloc7raw_vec14handle_reserve17h533dacd39ebbbfbbE
	.cfi_def_cfa wsp, 16
	ldp	x29, x30, [sp], #16
	.cfi_def_cfa_offset 0
	.cfi_restore w30
	.cfi_restore w29
	ret
	.cfi_endproc

	.p2align	2
__ZN5alloc7raw_vec19RawVec$LT$T$C$A$GT$17from_raw_parts_in17h1158bb01aeadba84E:
	.cfi_startproc
	sub	sp, sp, #80
	.cfi_def_cfa_offset 80
	stp	x29, x30, [sp, #64]
	add	x29, sp, #64
	.cfi_def_cfa w29, 16
	.cfi_offset w30, -8
	.cfi_offset w29, -16
	str	x0, [sp, #8]
	str	x1, [sp, #16]
	b	LBB141_1
LBB141_1:
	ldr	x8, [sp, #16]
	stur	x8, [x29, #-24]
	b	LBB141_2
LBB141_2:
	b	LBB141_3
LBB141_3:
	ldr	x0, [sp, #8]
	bl	__ZN4core3ptr8non_null16NonNull$LT$T$GT$13new_unchecked18precondition_check17h014695bd6199ce65E
	b	LBB141_4
LBB141_4:
	ldr	x8, [sp, #8]
	stur	x8, [x29, #-8]
	ldur	x8, [x29, #-8]
	stur	x8, [x29, #-16]
	ldur	x8, [x29, #-24]
	ldur	x9, [x29, #-16]
	str	x9, [sp, #32]
	str	x8, [sp, #24]
	ldr	x0, [sp, #24]
	ldr	x1, [sp, #32]
	.cfi_def_cfa wsp, 80
	ldp	x29, x30, [sp, #64]
	add	sp, sp, #80
	.cfi_def_cfa_offset 0
	.cfi_restore w30
	.cfi_restore w29
	ret
	.cfi_endproc

	.p2align	2
__ZN5alloc7raw_vec19RawVec$LT$T$C$A$GT$17from_raw_parts_in17h5326c119ec5fca9eE:
	.cfi_startproc
	sub	sp, sp, #80
	.cfi_def_cfa_offset 80
	stp	x29, x30, [sp, #64]
	add	x29, sp, #64
	.cfi_def_cfa w29, 16
	.cfi_offset w30, -8
	.cfi_offset w29, -16
	str	x0, [sp, #8]
	str	x1, [sp, #16]
	b	LBB142_1
LBB142_1:
	ldr	x8, [sp, #16]
	stur	x8, [x29, #-24]
	b	LBB142_2
LBB142_2:
	b	LBB142_3
LBB142_3:
	ldr	x0, [sp, #8]
	bl	__ZN4core3ptr8non_null16NonNull$LT$T$GT$13new_unchecked18precondition_check17h014695bd6199ce65E
	b	LBB142_4
LBB142_4:
	ldr	x8, [sp, #8]
	stur	x8, [x29, #-8]
	ldur	x8, [x29, #-8]
	stur	x8, [x29, #-16]
	ldur	x8, [x29, #-24]
	ldur	x9, [x29, #-16]
	str	x9, [sp, #32]
	str	x8, [sp, #24]
	ldr	x0, [sp, #24]
	ldr	x1, [sp, #32]
	.cfi_def_cfa wsp, 80
	ldp	x29, x30, [sp, #64]
	add	sp, sp, #80
	.cfi_def_cfa_offset 0
	.cfi_restore w30
	.cfi_restore w29
	ret
	.cfi_endproc

	.p2align	2
__ZN5alloc7raw_vec19RawVec$LT$T$C$A$GT$17from_raw_parts_in17h63b182ec6bf518a6E:
	.cfi_startproc
	sub	sp, sp, #80
	.cfi_def_cfa_offset 80
	stp	x29, x30, [sp, #64]
	add	x29, sp, #64
	.cfi_def_cfa w29, 16
	.cfi_offset w30, -8
	.cfi_offset w29, -16
	str	x0, [sp, #8]
	str	x1, [sp, #16]
	b	LBB143_1
LBB143_1:
	ldr	x8, [sp, #16]
	stur	x8, [x29, #-24]
	b	LBB143_2
LBB143_2:
	b	LBB143_3
LBB143_3:
	ldr	x0, [sp, #8]
	bl	__ZN4core3ptr8non_null16NonNull$LT$T$GT$13new_unchecked18precondition_check17h014695bd6199ce65E
	b	LBB143_4
LBB143_4:
	ldr	x8, [sp, #8]
	stur	x8, [x29, #-8]
	ldur	x8, [x29, #-8]
	stur	x8, [x29, #-16]
	ldur	x8, [x29, #-24]
	ldur	x9, [x29, #-16]
	str	x9, [sp, #32]
	str	x8, [sp, #24]
	ldr	x0, [sp, #24]
	ldr	x1, [sp, #32]
	.cfi_def_cfa wsp, 80
	ldp	x29, x30, [sp, #64]
	add	sp, sp, #80
	.cfi_def_cfa_offset 0
	.cfi_restore w30
	.cfi_restore w29
	ret
	.cfi_endproc

	.p2align	2
__ZN5alloc7raw_vec19RawVec$LT$T$C$A$GT$17from_raw_parts_in17hc7697f801d8f9e8eE:
	.cfi_startproc
	sub	sp, sp, #80
	.cfi_def_cfa_offset 80
	stp	x29, x30, [sp, #64]
	add	x29, sp, #64
	.cfi_def_cfa w29, 16
	.cfi_offset w30, -8
	.cfi_offset w29, -16
	str	x0, [sp, #8]
	str	x1, [sp, #16]
	b	LBB144_1
LBB144_1:
	ldr	x8, [sp, #16]
	stur	x8, [x29, #-24]
	b	LBB144_2
LBB144_2:
	b	LBB144_3
LBB144_3:
	ldr	x0, [sp, #8]
	bl	__ZN4core3ptr8non_null16NonNull$LT$T$GT$13new_unchecked18precondition_check17h014695bd6199ce65E
	b	LBB144_4
LBB144_4:
	ldr	x8, [sp, #8]
	stur	x8, [x29, #-8]
	ldur	x8, [x29, #-8]
	stur	x8, [x29, #-16]
	ldur	x8, [x29, #-24]
	ldur	x9, [x29, #-16]
	str	x9, [sp, #32]
	str	x8, [sp, #24]
	ldr	x0, [sp, #24]
	ldr	x1, [sp, #32]
	.cfi_def_cfa wsp, 80
	ldp	x29, x30, [sp, #64]
	add	sp, sp, #80
	.cfi_def_cfa_offset 0
	.cfi_restore w30
	.cfi_restore w29
	ret
	.cfi_endproc

	.p2align	2
__ZN5alloc7raw_vec19RawVec$LT$T$C$A$GT$17from_raw_parts_in17he190e64947a70b55E:
	.cfi_startproc
	sub	sp, sp, #80
	.cfi_def_cfa_offset 80
	stp	x29, x30, [sp, #64]
	add	x29, sp, #64
	.cfi_def_cfa w29, 16
	.cfi_offset w30, -8
	.cfi_offset w29, -16
	str	x0, [sp, #8]
	str	x1, [sp, #16]
	b	LBB145_1
LBB145_1:
	ldr	x8, [sp, #16]
	stur	x8, [x29, #-24]
	b	LBB145_2
LBB145_2:
	b	LBB145_3
LBB145_3:
	ldr	x0, [sp, #8]
	bl	__ZN4core3ptr8non_null16NonNull$LT$T$GT$13new_unchecked18precondition_check17h014695bd6199ce65E
	b	LBB145_4
LBB145_4:
	ldr	x8, [sp, #8]
	stur	x8, [x29, #-8]
	ldur	x8, [x29, #-8]
	stur	x8, [x29, #-16]
	ldur	x8, [x29, #-24]
	ldur	x9, [x29, #-16]
	str	x9, [sp, #32]
	str	x8, [sp, #24]
	ldr	x0, [sp, #24]
	ldr	x1, [sp, #32]
	.cfi_def_cfa wsp, 80
	ldp	x29, x30, [sp, #64]
	add	sp, sp, #80
	.cfi_def_cfa_offset 0
	.cfi_restore w30
	.cfi_restore w29
	ret
	.cfi_endproc

	.p2align	2
__ZN5alloc7raw_vec19RawVec$LT$T$C$A$GT$17from_raw_parts_in17hf740983afe6d5cb7E:
	.cfi_startproc
	sub	sp, sp, #80
	.cfi_def_cfa_offset 80
	stp	x29, x30, [sp, #64]
	add	x29, sp, #64
	.cfi_def_cfa w29, 16
	.cfi_offset w30, -8
	.cfi_offset w29, -16
	str	x0, [sp, #8]
	str	x1, [sp, #16]
	b	LBB146_1
LBB146_1:
	ldr	x8, [sp, #16]
	stur	x8, [x29, #-24]
	b	LBB146_2
LBB146_2:
	b	LBB146_3
LBB146_3:
	ldr	x0, [sp, #8]
	bl	__ZN4core3ptr8non_null16NonNull$LT$T$GT$13new_unchecked18precondition_check17h014695bd6199ce65E
	b	LBB146_4
LBB146_4:
	ldr	x8, [sp, #8]
	stur	x8, [x29, #-8]
	ldur	x8, [x29, #-8]
	stur	x8, [x29, #-16]
	ldur	x8, [x29, #-24]
	ldur	x9, [x29, #-16]
	str	x9, [sp, #32]
	str	x8, [sp, #24]
	ldr	x0, [sp, #24]
	ldr	x1, [sp, #32]
	.cfi_def_cfa wsp, 80
	ldp	x29, x30, [sp, #64]
	add	sp, sp, #80
	.cfi_def_cfa_offset 0
	.cfi_restore w30
	.cfi_restore w29
	ret
	.cfi_endproc

	.p2align	2
__ZN63_$LT$I$u20$as$u20$core..iter..traits..collect..IntoIterator$GT$9into_iter17h2a5963f7401b2db4E:
	.cfi_startproc
	ret
	.cfi_endproc

	.p2align	2
__ZN63_$LT$I$u20$as$u20$core..iter..traits..collect..IntoIterator$GT$9into_iter17h7627f43ee7cd2253E:
	.cfi_startproc
	ret
	.cfi_endproc

	.p2align	2
__ZN63_$LT$I$u20$as$u20$core..iter..traits..collect..IntoIterator$GT$9into_iter17hc70e992a18f362a5E:
	.cfi_startproc
	ret
	.cfi_endproc

	.p2align	2
__ZN63_$LT$alloc..alloc..Global$u20$as$u20$core..alloc..Allocator$GT$10deallocate17hc5fadc8bee5dda52E:
	.cfi_startproc
	sub	sp, sp, #64
	.cfi_def_cfa_offset 64
	stp	x29, x30, [sp, #48]
	add	x29, sp, #48
	.cfi_def_cfa w29, 16
	.cfi_offset w30, -8
	.cfi_offset w29, -16
	str	x1, [sp]
	str	x2, [sp, #8]
	str	x3, [sp, #16]
	ldr	x8, [sp, #16]
	cbnz	x8, LBB150_2
	b	LBB150_1
LBB150_1:
	b	LBB150_3
LBB150_2:
	ldr	x0, [sp]
	ldr	x9, [sp, #8]
	ldr	x8, [sp, #16]
	str	x9, [sp, #24]
	str	x8, [sp, #32]
	ldr	x1, [sp, #32]
	ldr	x8, [sp, #24]
	stur	x8, [x29, #-8]
	ldur	x2, [x29, #-8]
	bl	___rust_dealloc
	b	LBB150_3
LBB150_3:
	.cfi_def_cfa wsp, 64
	ldp	x29, x30, [sp, #48]
	add	sp, sp, #64
	.cfi_def_cfa_offset 0
	.cfi_restore w30
	.cfi_restore w29
	ret
	.cfi_endproc

	.p2align	2
__ZN63_$LT$alloc..alloc..Global$u20$as$u20$core..alloc..Allocator$GT$4grow17h1104c178e6bcff75E:
	.cfi_startproc
	stp	x29, x30, [sp, #-16]!
	.cfi_def_cfa_offset 16
	mov	x29, sp
	.cfi_def_cfa w29, 16
	.cfi_offset w30, -8
	.cfi_offset w29, -16
	mov	w8, #0
	and	w6, w8, #0x1
	bl	__ZN5alloc5alloc6Global9grow_impl17h186b12e5261a8b98E
	.cfi_def_cfa wsp, 16
	ldp	x29, x30, [sp], #16
	.cfi_def_cfa_offset 0
	.cfi_restore w30
	.cfi_restore w29
	ret
	.cfi_endproc

	.p2align	2
__ZN63_$LT$alloc..alloc..Global$u20$as$u20$core..alloc..Allocator$GT$8allocate17habc80d2b6492fff3E:
	.cfi_startproc
	stp	x29, x30, [sp, #-16]!
	.cfi_def_cfa_offset 16
	mov	x29, sp
	.cfi_def_cfa w29, 16
	.cfi_offset w30, -8
	.cfi_offset w29, -16
	mov	w8, #0
	and	w3, w8, #0x1
	bl	__ZN5alloc5alloc6Global10alloc_impl17h55da341c4b5c6e3dE
	.cfi_def_cfa wsp, 16
	ldp	x29, x30, [sp], #16
	.cfi_def_cfa_offset 0
	.cfi_restore w30
	.cfi_restore w29
	ret
	.cfi_endproc

	.p2align	2
__ZN64_$LT$$RF$i32$u20$as$u20$core..ops..arith..Add$LT$$RF$i32$GT$$GT$3add17haffeed548419eb45E:
	.cfi_startproc
	sub	sp, sp, #32
	.cfi_def_cfa_offset 32
	stp	x29, x30, [sp, #16]
	add	x29, sp, #16
	.cfi_def_cfa w29, 16
	.cfi_offset w30, -8
	.cfi_offset w29, -16
	.cfi_remember_state
	str	x2, [sp]
	ldr	w8, [x0]
	ldr	w9, [x1]
	adds	w8, w8, w9
	stur	w8, [x29, #-4]
	cset	w8, vs
	tbnz	w8, #0, LBB153_2
	b	LBB153_1
LBB153_1:
	ldur	w0, [x29, #-4]
	.cfi_def_cfa wsp, 32
	ldp	x29, x30, [sp, #16]
	add	sp, sp, #32
	.cfi_def_cfa_offset 0
	.cfi_restore w30
	.cfi_restore w29
	ret
LBB153_2:
	.cfi_restore_state
	ldr	x2, [sp]
	adrp	x0, _str.2@PAGE
	add	x0, x0, _str.2@PAGEOFF
	mov	w8, #28
	mov	x1, x8
	bl	__ZN4core9panicking5panic17hc59c8a709a9b37aeE
	.cfi_endproc

	.p2align	2
__ZN64_$LT$$RF$i32$u20$as$u20$core..ops..arith..Div$LT$$RF$i32$GT$$GT$3div17hd29fdd77f45d4c6cE:
	.cfi_startproc
	sub	sp, sp, #32
	.cfi_def_cfa_offset 32
	stp	x29, x30, [sp, #16]
	add	x29, sp, #16
	.cfi_def_cfa w29, 16
	.cfi_offset w30, -8
	.cfi_offset w29, -16
	.cfi_remember_state
	str	x2, [sp]
	ldr	w8, [x0]
	str	w8, [sp, #8]
	ldr	w8, [x1]
	stur	w8, [x29, #-4]
	cbz	w8, LBB154_2
	b	LBB154_1
LBB154_1:
	ldr	w9, [sp, #8]
	ldur	w8, [x29, #-4]
	adds	w8, w8, #1
	cset	w8, eq
	mov	w10, #-2147483648
	subs	w9, w9, w10
	cset	w9, eq
	and	w8, w8, w9
	tbnz	w8, #0, LBB154_4
	b	LBB154_3
LBB154_2:
	ldr	x2, [sp]
	adrp	x0, _str.0@PAGE
	add	x0, x0, _str.0@PAGEOFF
	mov	w8, #25
	mov	x1, x8
	bl	__ZN4core9panicking5panic17hc59c8a709a9b37aeE
LBB154_3:
	ldr	w8, [sp, #8]
	ldur	w9, [x29, #-4]
	sdiv	w0, w8, w9
	.cfi_def_cfa wsp, 32
	ldp	x29, x30, [sp, #16]
	add	sp, sp, #32
	.cfi_def_cfa_offset 0
	.cfi_restore w30
	.cfi_restore w29
	ret
LBB154_4:
	.cfi_restore_state
	ldr	x2, [sp]
	adrp	x0, _str.3@PAGE
	add	x0, x0, _str.3@PAGEOFF
	mov	w8, #31
	mov	x1, x8
	bl	__ZN4core9panicking5panic17hc59c8a709a9b37aeE
	.cfi_endproc

	.p2align	2
__ZN64_$LT$$RF$i32$u20$as$u20$core..ops..arith..Mul$LT$$RF$i32$GT$$GT$3mul17h09851e64bde045bcE:
	.cfi_startproc
	sub	sp, sp, #32
	.cfi_def_cfa_offset 32
	stp	x29, x30, [sp, #16]
	add	x29, sp, #16
	.cfi_def_cfa w29, 16
	.cfi_offset w30, -8
	.cfi_offset w29, -16
	.cfi_remember_state
	str	x2, [sp]
	ldr	w9, [x0]
	ldr	w10, [x1]
	smull	x8, w9, w10
	asr	x8, x8, #32
	mul	w9, w9, w10
	stur	w9, [x29, #-4]
	subs	w8, w8, w9, asr #31
	b.ne	LBB155_2
	b	LBB155_1
LBB155_1:
	ldur	w0, [x29, #-4]
	.cfi_def_cfa wsp, 32
	ldp	x29, x30, [sp, #16]
	add	sp, sp, #32
	.cfi_def_cfa_offset 0
	.cfi_restore w30
	.cfi_restore w29
	ret
LBB155_2:
	.cfi_restore_state
	ldr	x2, [sp]
	adrp	x0, _str.4@PAGE
	add	x0, x0, _str.4@PAGEOFF
	mov	w8, #33
	mov	x1, x8
	bl	__ZN4core9panicking5panic17hc59c8a709a9b37aeE
	.cfi_endproc

	.p2align	2
__ZN64_$LT$$RF$i32$u20$as$u20$core..ops..arith..Sub$LT$$RF$i32$GT$$GT$3sub17h94283ebb94365b9cE:
	.cfi_startproc
	sub	sp, sp, #32
	.cfi_def_cfa_offset 32
	stp	x29, x30, [sp, #16]
	add	x29, sp, #16
	.cfi_def_cfa w29, 16
	.cfi_offset w30, -8
	.cfi_offset w29, -16
	.cfi_remember_state
	str	x2, [sp]
	ldr	w8, [x0]
	ldr	w9, [x1]
	subs	w8, w8, w9
	stur	w8, [x29, #-4]
	cset	w8, vs
	tbnz	w8, #0, LBB156_2
	b	LBB156_1
LBB156_1:
	ldur	w0, [x29, #-4]
	.cfi_def_cfa wsp, 32
	ldp	x29, x30, [sp, #16]
	add	sp, sp, #32
	.cfi_def_cfa_offset 0
	.cfi_restore w30
	.cfi_restore w29
	ret
LBB156_2:
	.cfi_restore_state
	ldr	x2, [sp]
	adrp	x0, _str.5@PAGE
	add	x0, x0, _str.5@PAGEOFF
	mov	w8, #33
	mov	x1, x8
	bl	__ZN4core9panicking5panic17hc59c8a709a9b37aeE
	.cfi_endproc

	.p2align	2
__ZN64_$LT$$RF$i64$u20$as$u20$core..ops..arith..Add$LT$$RF$i64$GT$$GT$3add17he18c087e1fb0253bE:
	.cfi_startproc
	sub	sp, sp, #32
	.cfi_def_cfa_offset 32
	stp	x29, x30, [sp, #16]
	add	x29, sp, #16
	.cfi_def_cfa w29, 16
	.cfi_offset w30, -8
	.cfi_offset w29, -16
	.cfi_remember_state
	str	x2, [sp]
	ldr	x8, [x0]
	ldr	x9, [x1]
	adds	x8, x8, x9
	str	x8, [sp, #8]
	cset	w8, vs
	tbnz	w8, #0, LBB157_2
	b	LBB157_1
LBB157_1:
	ldr	x0, [sp, #8]
	.cfi_def_cfa wsp, 32
	ldp	x29, x30, [sp, #16]
	add	sp, sp, #32
	.cfi_def_cfa_offset 0
	.cfi_restore w30
	.cfi_restore w29
	ret
LBB157_2:
	.cfi_restore_state
	ldr	x2, [sp]
	adrp	x0, _str.2@PAGE
	add	x0, x0, _str.2@PAGEOFF
	mov	w8, #28
	mov	x1, x8
	bl	__ZN4core9panicking5panic17hc59c8a709a9b37aeE
	.cfi_endproc

	.p2align	2
__ZN64_$LT$$RF$i64$u20$as$u20$core..ops..arith..Div$LT$$RF$i64$GT$$GT$3div17ha0b42afe14a389baE:
	.cfi_startproc
	sub	sp, sp, #48
	.cfi_def_cfa_offset 48
	stp	x29, x30, [sp, #32]
	add	x29, sp, #32
	.cfi_def_cfa w29, 16
	.cfi_offset w30, -8
	.cfi_offset w29, -16
	.cfi_remember_state
	str	x2, [sp, #8]
	ldr	x8, [x0]
	str	x8, [sp, #16]
	ldr	x8, [x1]
	stur	x8, [x29, #-8]
	cbz	x8, LBB158_2
	b	LBB158_1
LBB158_1:
	ldr	x9, [sp, #16]
	ldur	x8, [x29, #-8]
	adds	x8, x8, #1
	cset	w8, eq
	mov	x10, #-9223372036854775808
	subs	x9, x9, x10
	cset	w9, eq
	and	w8, w8, w9
	tbnz	w8, #0, LBB158_4
	b	LBB158_3
LBB158_2:
	ldr	x2, [sp, #8]
	adrp	x0, _str.0@PAGE
	add	x0, x0, _str.0@PAGEOFF
	mov	w8, #25
	mov	x1, x8
	bl	__ZN4core9panicking5panic17hc59c8a709a9b37aeE
LBB158_3:
	ldr	x8, [sp, #16]
	ldur	x9, [x29, #-8]
	sdiv	x0, x8, x9
	.cfi_def_cfa wsp, 48
	ldp	x29, x30, [sp, #32]
	add	sp, sp, #48
	.cfi_def_cfa_offset 0
	.cfi_restore w30
	.cfi_restore w29
	ret
LBB158_4:
	.cfi_restore_state
	ldr	x2, [sp, #8]
	adrp	x0, _str.3@PAGE
	add	x0, x0, _str.3@PAGEOFF
	mov	w8, #31
	mov	x1, x8
	bl	__ZN4core9panicking5panic17hc59c8a709a9b37aeE
	.cfi_endproc

	.p2align	2
__ZN64_$LT$$RF$i64$u20$as$u20$core..ops..arith..Mul$LT$$RF$i64$GT$$GT$3mul17h15a4e94dd23dc741E:
	.cfi_startproc
	sub	sp, sp, #32
	.cfi_def_cfa_offset 32
	stp	x29, x30, [sp, #16]
	add	x29, sp, #16
	.cfi_def_cfa w29, 16
	.cfi_offset w30, -8
	.cfi_offset w29, -16
	.cfi_remember_state
	str	x2, [sp]
	ldr	x9, [x0]
	ldr	x10, [x1]
	smulh	x8, x9, x10
	mul	x9, x9, x10
	str	x9, [sp, #8]
	subs	x8, x8, x9, asr #63
	b.ne	LBB159_2
	b	LBB159_1
LBB159_1:
	ldr	x0, [sp, #8]
	.cfi_def_cfa wsp, 32
	ldp	x29, x30, [sp, #16]
	add	sp, sp, #32
	.cfi_def_cfa_offset 0
	.cfi_restore w30
	.cfi_restore w29
	ret
LBB159_2:
	.cfi_restore_state
	ldr	x2, [sp]
	adrp	x0, _str.4@PAGE
	add	x0, x0, _str.4@PAGEOFF
	mov	w8, #33
	mov	x1, x8
	bl	__ZN4core9panicking5panic17hc59c8a709a9b37aeE
	.cfi_endproc

	.p2align	2
__ZN64_$LT$$RF$i64$u20$as$u20$core..ops..arith..Sub$LT$$RF$i64$GT$$GT$3sub17h2d6f0cbc91a90a8fE:
	.cfi_startproc
	sub	sp, sp, #32
	.cfi_def_cfa_offset 32
	stp	x29, x30, [sp, #16]
	add	x29, sp, #16
	.cfi_def_cfa w29, 16
	.cfi_offset w30, -8
	.cfi_offset w29, -16
	.cfi_remember_state
	str	x2, [sp]
	ldr	x8, [x0]
	ldr	x9, [x1]
	subs	x8, x8, x9
	str	x8, [sp, #8]
	cset	w8, vs
	tbnz	w8, #0, LBB160_2
	b	LBB160_1
LBB160_1:
	ldr	x0, [sp, #8]
	.cfi_def_cfa wsp, 32
	ldp	x29, x30, [sp, #16]
	add	sp, sp, #32
	.cfi_def_cfa_offset 0
	.cfi_restore w30
	.cfi_restore w29
	ret
LBB160_2:
	.cfi_restore_state
	ldr	x2, [sp]
	adrp	x0, _str.5@PAGE
	add	x0, x0, _str.5@PAGEOFF
	mov	w8, #33
	mov	x1, x8
	bl	__ZN4core9panicking5panic17hc59c8a709a9b37aeE
	.cfi_endproc

	.p2align	2
__ZN65_$LT$alloc..vec..Vec$LT$T$C$A$GT$$u20$as$u20$core..fmt..Debug$GT$3fmt17h10da48dbecf85df7E:
	.cfi_startproc
	sub	sp, sp, #32
	.cfi_def_cfa_offset 32
	stp	x29, x30, [sp, #16]
	add	x29, sp, #16
	.cfi_def_cfa w29, 16
	.cfi_offset w30, -8
	.cfi_offset w29, -16
	str	x1, [sp, #8]
	bl	__ZN72_$LT$alloc..vec..Vec$LT$T$C$A$GT$$u20$as$u20$core..ops..deref..Deref$GT$5deref17h70cbdade11d89f06E
	ldr	x2, [sp, #8]
	bl	__ZN48_$LT$$u5b$T$u5d$$u20$as$u20$core..fmt..Debug$GT$3fmt17hd9b6460679eaffa7E
	.cfi_def_cfa wsp, 32
	ldp	x29, x30, [sp, #16]
	add	sp, sp, #32
	.cfi_def_cfa_offset 0
	.cfi_restore w30
	.cfi_restore w29
	ret
	.cfi_endproc

	.p2align	2
__ZN65_$LT$alloc..vec..Vec$LT$T$C$A$GT$$u20$as$u20$core..fmt..Debug$GT$3fmt17hd52e55f810623b49E:
	.cfi_startproc
	sub	sp, sp, #32
	.cfi_def_cfa_offset 32
	stp	x29, x30, [sp, #16]
	add	x29, sp, #16
	.cfi_def_cfa w29, 16
	.cfi_offset w30, -8
	.cfi_offset w29, -16
	str	x1, [sp, #8]
	bl	__ZN72_$LT$alloc..vec..Vec$LT$T$C$A$GT$$u20$as$u20$core..ops..deref..Deref$GT$5deref17h6346f7eaf8ebae4cE
	ldr	x2, [sp, #8]
	bl	__ZN48_$LT$$u5b$T$u5d$$u20$as$u20$core..fmt..Debug$GT$3fmt17h6147861da6c066dcE
	.cfi_def_cfa wsp, 32
	ldp	x29, x30, [sp, #16]
	add	sp, sp, #32
	.cfi_def_cfa_offset 0
	.cfi_restore w30
	.cfi_restore w29
	ret
	.cfi_endproc

	.p2align	2
__ZN70_$LT$alloc..vec..Vec$LT$T$C$A$GT$$u20$as$u20$core..ops..drop..Drop$GT$4drop17h180872de86a57143E:
	.cfi_startproc
	sub	sp, sp, #32
	.cfi_def_cfa_offset 32
	ldr	x9, [x0, #8]
	ldr	x8, [x0, #16]
	str	x9, [sp, #16]
	str	x8, [sp, #24]
	ldr	x9, [sp, #16]
	ldr	x8, [sp, #24]
	str	x9, [sp]
	str	x8, [sp, #8]
	add	sp, sp, #32
	.cfi_def_cfa_offset 0
	ret
	.cfi_endproc

	.p2align	2
__ZN70_$LT$alloc..vec..Vec$LT$T$C$A$GT$$u20$as$u20$core..ops..drop..Drop$GT$4drop17h1a22e1d4b76bb115E:
	.cfi_startproc
	sub	sp, sp, #32
	.cfi_def_cfa_offset 32
	ldr	x9, [x0, #8]
	ldr	x8, [x0, #16]
	str	x9, [sp, #16]
	str	x8, [sp, #24]
	ldr	x9, [sp, #16]
	ldr	x8, [sp, #24]
	str	x9, [sp]
	str	x8, [sp, #8]
	add	sp, sp, #32
	.cfi_def_cfa_offset 0
	ret
	.cfi_endproc

	.p2align	2
__ZN70_$LT$alloc..vec..Vec$LT$T$C$A$GT$$u20$as$u20$core..ops..drop..Drop$GT$4drop17h231c7dc41ab0bd21E:
	.cfi_startproc
	sub	sp, sp, #32
	.cfi_def_cfa_offset 32
	ldr	x9, [x0, #8]
	ldr	x8, [x0, #16]
	str	x9, [sp, #16]
	str	x8, [sp, #24]
	ldr	x9, [sp, #16]
	ldr	x8, [sp, #24]
	str	x9, [sp]
	str	x8, [sp, #8]
	add	sp, sp, #32
	.cfi_def_cfa_offset 0
	ret
	.cfi_endproc

	.p2align	2
__ZN70_$LT$alloc..vec..Vec$LT$T$C$A$GT$$u20$as$u20$core..ops..drop..Drop$GT$4drop17ha0f625439a49ea68E:
	.cfi_startproc
	sub	sp, sp, #32
	.cfi_def_cfa_offset 32
	ldr	x9, [x0, #8]
	ldr	x8, [x0, #16]
	str	x9, [sp, #16]
	str	x8, [sp, #24]
	ldr	x9, [sp, #16]
	ldr	x8, [sp, #24]
	str	x9, [sp]
	str	x8, [sp, #8]
	add	sp, sp, #32
	.cfi_def_cfa_offset 0
	ret
	.cfi_endproc

	.p2align	2
__ZN70_$LT$alloc..vec..Vec$LT$T$C$A$GT$$u20$as$u20$core..ops..drop..Drop$GT$4drop17ha4da5c1ab779e773E:
	.cfi_startproc
	sub	sp, sp, #32
	.cfi_def_cfa_offset 32
	ldr	x9, [x0, #8]
	ldr	x8, [x0, #16]
	str	x9, [sp, #16]
	str	x8, [sp, #24]
	ldr	x9, [sp, #16]
	ldr	x8, [sp, #24]
	str	x9, [sp]
	str	x8, [sp, #8]
	add	sp, sp, #32
	.cfi_def_cfa_offset 0
	ret
	.cfi_endproc

	.p2align	2
__ZN70_$LT$alloc..vec..Vec$LT$T$C$A$GT$$u20$as$u20$core..ops..drop..Drop$GT$4drop17hb5f518fa518ba4b4E:
	.cfi_startproc
	sub	sp, sp, #32
	.cfi_def_cfa_offset 32
	ldr	x9, [x0, #8]
	ldr	x8, [x0, #16]
	str	x9, [sp, #16]
	str	x8, [sp, #24]
	ldr	x9, [sp, #16]
	ldr	x8, [sp, #24]
	str	x9, [sp]
	str	x8, [sp, #8]
	add	sp, sp, #32
	.cfi_def_cfa_offset 0
	ret
	.cfi_endproc

	.p2align	2
__ZN70_$LT$alloc..vec..Vec$LT$T$C$A$GT$$u20$as$u20$core..ops..drop..Drop$GT$4drop17hbb1ff3e1f6843a73E:
	.cfi_startproc
	sub	sp, sp, #32
	.cfi_def_cfa_offset 32
	ldr	x9, [x0, #8]
	ldr	x8, [x0, #16]
	str	x9, [sp, #16]
	str	x8, [sp, #24]
	ldr	x9, [sp, #16]
	ldr	x8, [sp, #24]
	str	x9, [sp]
	str	x8, [sp, #8]
	add	sp, sp, #32
	.cfi_def_cfa_offset 0
	ret
	.cfi_endproc

	.p2align	2
__ZN70_$LT$alloc..vec..Vec$LT$T$C$A$GT$$u20$as$u20$core..ops..drop..Drop$GT$4drop17heedb86448cd32201E:
	.cfi_startproc
	sub	sp, sp, #32
	.cfi_def_cfa_offset 32
	ldr	x9, [x0, #8]
	ldr	x8, [x0, #16]
	str	x9, [sp, #16]
	str	x8, [sp, #24]
	ldr	x9, [sp, #16]
	ldr	x8, [sp, #24]
	str	x9, [sp]
	str	x8, [sp, #8]
	add	sp, sp, #32
	.cfi_def_cfa_offset 0
	ret
	.cfi_endproc

	.p2align	2
__ZN72_$LT$alloc..boxed..Box$LT$T$C$A$GT$$u20$as$u20$core..ops..drop..Drop$GT$4drop17h1f2c720a5dbee91aE:
	.cfi_startproc
	sub	sp, sp, #80
	.cfi_def_cfa_offset 80
	stp	x29, x30, [sp, #64]
	add	x29, sp, #64
	.cfi_def_cfa w29, 16
	.cfi_offset w30, -8
	.cfi_offset w29, -16
	str	x0, [sp, #8]
	ldr	x8, [x0]
	str	x8, [sp, #16]
	mov	w8, #816
	stur	x8, [x29, #-16]
	ldur	x9, [x29, #-16]
	mov	w8, #8
	stur	x8, [x29, #-8]
	ldur	x8, [x29, #-8]
	str	x9, [sp, #32]
	str	x8, [sp, #24]
	ldr	x8, [sp, #32]
	cbnz	x8, LBB171_2
	b	LBB171_1
LBB171_1:
	b	LBB171_3
LBB171_2:
	ldr	x8, [sp, #16]
	ldr	x9, [sp, #8]
	add	x0, x9, #8
	stur	x8, [x29, #-24]
	ldr	x2, [sp, #24]
	ldr	x3, [sp, #32]
	ldur	x1, [x29, #-24]
	bl	__ZN63_$LT$alloc..alloc..Global$u20$as$u20$core..alloc..Allocator$GT$10deallocate17hc5fadc8bee5dda52E
	b	LBB171_3
LBB171_3:
	.cfi_def_cfa wsp, 80
	ldp	x29, x30, [sp, #64]
	add	sp, sp, #80
	.cfi_def_cfa_offset 0
	.cfi_restore w30
	.cfi_restore w29
	ret
	.cfi_endproc

	.p2align	2
__ZN72_$LT$alloc..boxed..Box$LT$T$C$A$GT$$u20$as$u20$core..ops..drop..Drop$GT$4drop17h23d957b2c2c2dd12E:
	.cfi_startproc
	sub	sp, sp, #80
	.cfi_def_cfa_offset 80
	stp	x29, x30, [sp, #64]
	add	x29, sp, #64
	.cfi_def_cfa w29, 16
	.cfi_offset w30, -8
	.cfi_offset w29, -16
	str	x0, [sp, #8]
	ldr	x8, [x0]
	str	x8, [sp, #16]
	mov	w8, #952
	stur	x8, [x29, #-16]
	ldur	x9, [x29, #-16]
	mov	w8, #8
	stur	x8, [x29, #-8]
	ldur	x8, [x29, #-8]
	str	x9, [sp, #32]
	str	x8, [sp, #24]
	ldr	x8, [sp, #32]
	cbnz	x8, LBB172_2
	b	LBB172_1
LBB172_1:
	b	LBB172_3
LBB172_2:
	ldr	x8, [sp, #16]
	ldr	x9, [sp, #8]
	add	x0, x9, #8
	stur	x8, [x29, #-24]
	ldr	x2, [sp, #24]
	ldr	x3, [sp, #32]
	ldur	x1, [x29, #-24]
	bl	__ZN63_$LT$alloc..alloc..Global$u20$as$u20$core..alloc..Allocator$GT$10deallocate17hc5fadc8bee5dda52E
	b	LBB172_3
LBB172_3:
	.cfi_def_cfa wsp, 80
	ldp	x29, x30, [sp, #64]
	add	sp, sp, #80
	.cfi_def_cfa_offset 0
	.cfi_restore w30
	.cfi_restore w29
	ret
	.cfi_endproc

	.p2align	2
__ZN72_$LT$alloc..boxed..Box$LT$T$C$A$GT$$u20$as$u20$core..ops..drop..Drop$GT$4drop17h42ee07ad48cc5cbcE:
	.cfi_startproc
	sub	sp, sp, #80
	.cfi_def_cfa_offset 80
	stp	x29, x30, [sp, #64]
	add	x29, sp, #64
	.cfi_def_cfa w29, 16
	.cfi_offset w30, -8
	.cfi_offset w29, -16
	str	x0, [sp, #8]
	ldr	x8, [x0]
	str	x8, [sp, #16]
	mov	w8, #1768
	stur	x8, [x29, #-16]
	ldur	x9, [x29, #-16]
	mov	w8, #8
	stur	x8, [x29, #-8]
	ldur	x8, [x29, #-8]
	str	x9, [sp, #32]
	str	x8, [sp, #24]
	ldr	x8, [sp, #32]
	cbnz	x8, LBB173_2
	b	LBB173_1
LBB173_1:
	b	LBB173_3
LBB173_2:
	ldr	x8, [sp, #16]
	ldr	x9, [sp, #8]
	add	x0, x9, #8
	stur	x8, [x29, #-24]
	ldr	x2, [sp, #24]
	ldr	x3, [sp, #32]
	ldur	x1, [x29, #-24]
	bl	__ZN63_$LT$alloc..alloc..Global$u20$as$u20$core..alloc..Allocator$GT$10deallocate17hc5fadc8bee5dda52E
	b	LBB173_3
LBB173_3:
	.cfi_def_cfa wsp, 80
	ldp	x29, x30, [sp, #64]
	add	sp, sp, #80
	.cfi_def_cfa_offset 0
	.cfi_restore w30
	.cfi_restore w29
	ret
	.cfi_endproc

	.p2align	2
__ZN72_$LT$alloc..boxed..Box$LT$T$C$A$GT$$u20$as$u20$core..ops..drop..Drop$GT$4drop17h5bdf4cd9537f880aE:
	.cfi_startproc
	sub	sp, sp, #80
	.cfi_def_cfa_offset 80
	stp	x29, x30, [sp, #64]
	add	x29, sp, #64
	.cfi_def_cfa w29, 16
	.cfi_offset w30, -8
	.cfi_offset w29, -16
	str	x0, [sp, #8]
	ldr	x8, [x0]
	str	x8, [sp, #16]
	mov	w8, #672
	stur	x8, [x29, #-16]
	ldur	x9, [x29, #-16]
	mov	w8, #8
	stur	x8, [x29, #-8]
	ldur	x8, [x29, #-8]
	str	x9, [sp, #32]
	str	x8, [sp, #24]
	ldr	x8, [sp, #32]
	cbnz	x8, LBB174_2
	b	LBB174_1
LBB174_1:
	b	LBB174_3
LBB174_2:
	ldr	x8, [sp, #16]
	ldr	x9, [sp, #8]
	add	x0, x9, #8
	stur	x8, [x29, #-24]
	ldr	x2, [sp, #24]
	ldr	x3, [sp, #32]
	ldur	x1, [x29, #-24]
	bl	__ZN63_$LT$alloc..alloc..Global$u20$as$u20$core..alloc..Allocator$GT$10deallocate17hc5fadc8bee5dda52E
	b	LBB174_3
LBB174_3:
	.cfi_def_cfa wsp, 80
	ldp	x29, x30, [sp, #64]
	add	sp, sp, #80
	.cfi_def_cfa_offset 0
	.cfi_restore w30
	.cfi_restore w29
	ret
	.cfi_endproc

	.p2align	2
__ZN72_$LT$alloc..boxed..Box$LT$T$C$A$GT$$u20$as$u20$core..ops..drop..Drop$GT$4drop17h95337d73c9fc504dE:
	.cfi_startproc
	sub	sp, sp, #80
	.cfi_def_cfa_offset 80
	stp	x29, x30, [sp, #64]
	add	x29, sp, #64
	.cfi_def_cfa w29, 16
	.cfi_offset w30, -8
	.cfi_offset w29, -16
	str	x0, [sp, #8]
	ldr	x8, [x0]
	str	x8, [sp, #16]
	mov	w8, #672
	stur	x8, [x29, #-16]
	ldur	x9, [x29, #-16]
	mov	w8, #8
	stur	x8, [x29, #-8]
	ldur	x8, [x29, #-8]
	str	x9, [sp, #32]
	str	x8, [sp, #24]
	ldr	x8, [sp, #32]
	cbnz	x8, LBB175_2
	b	LBB175_1
LBB175_1:
	b	LBB175_3
LBB175_2:
	ldr	x8, [sp, #16]
	ldr	x9, [sp, #8]
	add	x0, x9, #8
	stur	x8, [x29, #-24]
	ldr	x2, [sp, #24]
	ldr	x3, [sp, #32]
	ldur	x1, [x29, #-24]
	bl	__ZN63_$LT$alloc..alloc..Global$u20$as$u20$core..alloc..Allocator$GT$10deallocate17hc5fadc8bee5dda52E
	b	LBB175_3
LBB175_3:
	.cfi_def_cfa wsp, 80
	ldp	x29, x30, [sp, #64]
	add	sp, sp, #80
	.cfi_def_cfa_offset 0
	.cfi_restore w30
	.cfi_restore w29
	ret
	.cfi_endproc

	.p2align	2
__ZN72_$LT$alloc..vec..Vec$LT$T$C$A$GT$$u20$as$u20$core..ops..deref..Deref$GT$5deref17h39b8db764d9e69c3E:
	.cfi_startproc
	sub	sp, sp, #64
	.cfi_def_cfa_offset 64
	stp	x29, x30, [sp, #48]
	add	x29, sp, #48
	.cfi_def_cfa w29, 16
	.cfi_offset w30, -8
	.cfi_offset w29, -16
	ldr	x8, [x0, #8]
	str	x8, [sp]
	ldr	x8, [x0, #16]
	str	x8, [sp, #8]
	b	LBB176_1
LBB176_1:
	ldr	x3, [sp, #8]
	ldr	x0, [sp]
	mov	w8, #16
	mov	x1, x8
	mov	w8, #8
	mov	x2, x8
	bl	__ZN4core5slice3raw14from_raw_parts18precondition_check17h44775545258936e7E
	b	LBB176_2
LBB176_2:
	ldr	x8, [sp, #8]
	ldr	x9, [sp]
	stur	x9, [x29, #-16]
	stur	x8, [x29, #-8]
	ldur	x9, [x29, #-16]
	ldur	x8, [x29, #-8]
	str	x9, [sp, #16]
	str	x8, [sp, #24]
	ldr	x0, [sp, #16]
	ldr	x1, [sp, #24]
	.cfi_def_cfa wsp, 64
	ldp	x29, x30, [sp, #48]
	add	sp, sp, #64
	.cfi_def_cfa_offset 0
	.cfi_restore w30
	.cfi_restore w29
	ret
	.cfi_endproc

	.p2align	2
__ZN72_$LT$alloc..vec..Vec$LT$T$C$A$GT$$u20$as$u20$core..ops..deref..Deref$GT$5deref17h6346f7eaf8ebae4cE:
	.cfi_startproc
	sub	sp, sp, #64
	.cfi_def_cfa_offset 64
	stp	x29, x30, [sp, #48]
	add	x29, sp, #48
	.cfi_def_cfa w29, 16
	.cfi_offset w30, -8
	.cfi_offset w29, -16
	ldr	x8, [x0, #8]
	str	x8, [sp]
	ldr	x8, [x0, #16]
	str	x8, [sp, #8]
	b	LBB177_1
LBB177_1:
	ldr	x3, [sp, #8]
	ldr	x0, [sp]
	mov	w8, #8
	mov	x2, x8
	mov	x1, x2
	bl	__ZN4core5slice3raw14from_raw_parts18precondition_check17h44775545258936e7E
	b	LBB177_2
LBB177_2:
	ldr	x8, [sp, #8]
	ldr	x9, [sp]
	stur	x9, [x29, #-16]
	stur	x8, [x29, #-8]
	ldur	x9, [x29, #-16]
	ldur	x8, [x29, #-8]
	str	x9, [sp, #16]
	str	x8, [sp, #24]
	ldr	x0, [sp, #16]
	ldr	x1, [sp, #24]
	.cfi_def_cfa wsp, 64
	ldp	x29, x30, [sp, #48]
	add	sp, sp, #64
	.cfi_def_cfa_offset 0
	.cfi_restore w30
	.cfi_restore w29
	ret
	.cfi_endproc

	.p2align	2
__ZN72_$LT$alloc..vec..Vec$LT$T$C$A$GT$$u20$as$u20$core..ops..deref..Deref$GT$5deref17h70cbdade11d89f06E:
	.cfi_startproc
	sub	sp, sp, #64
	.cfi_def_cfa_offset 64
	stp	x29, x30, [sp, #48]
	add	x29, sp, #48
	.cfi_def_cfa w29, 16
	.cfi_offset w30, -8
	.cfi_offset w29, -16
	ldr	x8, [x0, #8]
	str	x8, [sp]
	ldr	x8, [x0, #16]
	str	x8, [sp, #8]
	b	LBB178_1
LBB178_1:
	ldr	x3, [sp, #8]
	ldr	x0, [sp]
	mov	w8, #16
	mov	x1, x8
	mov	w8, #8
	mov	x2, x8
	bl	__ZN4core5slice3raw14from_raw_parts18precondition_check17h44775545258936e7E
	b	LBB178_2
LBB178_2:
	ldr	x8, [sp, #8]
	ldr	x9, [sp]
	stur	x9, [x29, #-16]
	stur	x8, [x29, #-8]
	ldur	x9, [x29, #-16]
	ldur	x8, [x29, #-8]
	str	x9, [sp, #16]
	str	x8, [sp, #24]
	ldr	x0, [sp, #16]
	ldr	x1, [sp, #24]
	.cfi_def_cfa wsp, 64
	ldp	x29, x30, [sp, #48]
	add	sp, sp, #64
	.cfi_def_cfa_offset 0
	.cfi_restore w30
	.cfi_restore w29
	ret
	.cfi_endproc

	.p2align	2
__ZN72_$LT$alloc..vec..Vec$LT$T$C$A$GT$$u20$as$u20$core..ops..deref..Deref$GT$5deref17h750abde33ecac153E:
	.cfi_startproc
	sub	sp, sp, #64
	.cfi_def_cfa_offset 64
	stp	x29, x30, [sp, #48]
	add	x29, sp, #48
	.cfi_def_cfa w29, 16
	.cfi_offset w30, -8
	.cfi_offset w29, -16
	ldr	x8, [x0, #8]
	str	x8, [sp]
	ldr	x8, [x0, #16]
	str	x8, [sp, #8]
	b	LBB179_1
LBB179_1:
	ldr	x3, [sp, #8]
	ldr	x0, [sp]
	mov	w8, #48
	mov	x1, x8
	mov	w8, #8
	mov	x2, x8
	bl	__ZN4core5slice3raw14from_raw_parts18precondition_check17h44775545258936e7E
	b	LBB179_2
LBB179_2:
	ldr	x8, [sp, #8]
	ldr	x9, [sp]
	stur	x9, [x29, #-16]
	stur	x8, [x29, #-8]
	ldur	x9, [x29, #-16]
	ldur	x8, [x29, #-8]
	str	x9, [sp, #16]
	str	x8, [sp, #24]
	ldr	x0, [sp, #16]
	ldr	x1, [sp, #24]
	.cfi_def_cfa wsp, 64
	ldp	x29, x30, [sp, #48]
	add	sp, sp, #64
	.cfi_def_cfa_offset 0
	.cfi_restore w30
	.cfi_restore w29
	ret
	.cfi_endproc

	.p2align	2
__ZN72_$LT$alloc..vec..Vec$LT$T$C$A$GT$$u20$as$u20$core..ops..deref..Deref$GT$5deref17h8afc42426ac1b360E:
	.cfi_startproc
	sub	sp, sp, #64
	.cfi_def_cfa_offset 64
	stp	x29, x30, [sp, #48]
	add	x29, sp, #48
	.cfi_def_cfa w29, 16
	.cfi_offset w30, -8
	.cfi_offset w29, -16
	ldr	x8, [x0, #8]
	str	x8, [sp]
	ldr	x8, [x0, #16]
	str	x8, [sp, #8]
	b	LBB180_1
LBB180_1:
	ldr	x3, [sp, #8]
	ldr	x0, [sp]
	mov	w8, #104
	mov	x1, x8
	mov	w8, #8
	mov	x2, x8
	bl	__ZN4core5slice3raw14from_raw_parts18precondition_check17h44775545258936e7E
	b	LBB180_2
LBB180_2:
	ldr	x8, [sp, #8]
	ldr	x9, [sp]
	stur	x9, [x29, #-16]
	stur	x8, [x29, #-8]
	ldur	x9, [x29, #-16]
	ldur	x8, [x29, #-8]
	str	x9, [sp, #16]
	str	x8, [sp, #24]
	ldr	x0, [sp, #16]
	ldr	x1, [sp, #24]
	.cfi_def_cfa wsp, 64
	ldp	x29, x30, [sp, #48]
	add	sp, sp, #64
	.cfi_def_cfa_offset 0
	.cfi_restore w30
	.cfi_restore w29
	ret
	.cfi_endproc

	.p2align	2
__ZN72_$LT$alloc..vec..Vec$LT$T$C$A$GT$$u20$as$u20$core..ops..deref..Deref$GT$5deref17hcf881085915acf78E:
	.cfi_startproc
	sub	sp, sp, #64
	.cfi_def_cfa_offset 64
	stp	x29, x30, [sp, #48]
	add	x29, sp, #48
	.cfi_def_cfa w29, 16
	.cfi_offset w30, -8
	.cfi_offset w29, -16
	ldr	x8, [x0, #8]
	str	x8, [sp]
	ldr	x8, [x0, #16]
	str	x8, [sp, #8]
	b	LBB181_1
LBB181_1:
	ldr	x3, [sp, #8]
	ldr	x0, [sp]
	mov	w8, #56
	mov	x1, x8
	mov	w8, #8
	mov	x2, x8
	bl	__ZN4core5slice3raw14from_raw_parts18precondition_check17h44775545258936e7E
	b	LBB181_2
LBB181_2:
	ldr	x8, [sp, #8]
	ldr	x9, [sp]
	stur	x9, [x29, #-16]
	stur	x8, [x29, #-8]
	ldur	x9, [x29, #-16]
	ldur	x8, [x29, #-8]
	str	x9, [sp, #16]
	str	x8, [sp, #24]
	ldr	x0, [sp, #16]
	ldr	x1, [sp, #24]
	.cfi_def_cfa wsp, 64
	ldp	x29, x30, [sp, #48]
	add	sp, sp, #64
	.cfi_def_cfa_offset 0
	.cfi_restore w30
	.cfi_restore w29
	ret
	.cfi_endproc

	.p2align	2
__ZN75_$LT$usize$u20$as$u20$core..slice..index..SliceIndex$LT$$u5b$T$u5d$$GT$$GT$13get_unchecked17h14d35e93823784dbE:
	.cfi_startproc
	sub	sp, sp, #80
	.cfi_def_cfa_offset 80
	stp	x29, x30, [sp, #64]
	add	x29, sp, #64
	.cfi_def_cfa w29, 16
	.cfi_offset w30, -8
	.cfi_offset w29, -16
	str	x0, [sp, #8]
	str	x1, [sp, #16]
	str	x2, [sp, #24]
	b	LBB182_1
LBB182_1:
	ldr	x0, [sp, #8]
	ldr	x8, [sp, #24]
	ldr	x9, [sp, #16]
	str	x9, [sp, #32]
	str	x8, [sp, #40]
	ldr	x1, [sp, #40]
	bl	__ZN75_$LT$usize$u20$as$u20$core..slice..index..SliceIndex$LT$$u5b$T$u5d$$GT$$GT$13get_unchecked18precondition_check17h0d9f1c062821a537E
	b	LBB182_2
LBB182_2:
	ldr	x8, [sp, #16]
	ldr	x9, [sp, #8]
	ldr	x10, [sp, #24]
	stur	x8, [x29, #-16]
	stur	x10, [x29, #-8]
	mov	w10, #24
	mul	x9, x9, x10
	add	x0, x8, x9
	.cfi_def_cfa wsp, 80
	ldp	x29, x30, [sp, #64]
	add	sp, sp, #80
	.cfi_def_cfa_offset 0
	.cfi_restore w30
	.cfi_restore w29
	ret
	.cfi_endproc

	.p2align	2
__ZN75_$LT$usize$u20$as$u20$core..slice..index..SliceIndex$LT$$u5b$T$u5d$$GT$$GT$13get_unchecked17h575587ebed97f6beE:
	.cfi_startproc
	sub	sp, sp, #80
	.cfi_def_cfa_offset 80
	stp	x29, x30, [sp, #64]
	add	x29, sp, #64
	.cfi_def_cfa w29, 16
	.cfi_offset w30, -8
	.cfi_offset w29, -16
	str	x0, [sp, #8]
	str	x1, [sp, #16]
	str	x2, [sp, #24]
	b	LBB183_1
LBB183_1:
	ldr	x0, [sp, #8]
	ldr	x8, [sp, #24]
	ldr	x9, [sp, #16]
	str	x9, [sp, #32]
	str	x8, [sp, #40]
	ldr	x1, [sp, #40]
	bl	__ZN75_$LT$usize$u20$as$u20$core..slice..index..SliceIndex$LT$$u5b$T$u5d$$GT$$GT$13get_unchecked18precondition_check17h0d9f1c062821a537E
	b	LBB183_2
LBB183_2:
	ldr	x8, [sp, #16]
	ldr	x9, [sp, #8]
	ldr	x10, [sp, #24]
	stur	x8, [x29, #-16]
	stur	x10, [x29, #-8]
	add	x0, x8, x9, lsl #4
	.cfi_def_cfa wsp, 80
	ldp	x29, x30, [sp, #64]
	add	sp, sp, #80
	.cfi_def_cfa_offset 0
	.cfi_restore w30
	.cfi_restore w29
	ret
	.cfi_endproc

	.p2align	2
__ZN75_$LT$usize$u20$as$u20$core..slice..index..SliceIndex$LT$$u5b$T$u5d$$GT$$GT$13get_unchecked17hcb920bf91edc27bdE:
	.cfi_startproc
	sub	sp, sp, #80
	.cfi_def_cfa_offset 80
	stp	x29, x30, [sp, #64]
	add	x29, sp, #64
	.cfi_def_cfa w29, 16
	.cfi_offset w30, -8
	.cfi_offset w29, -16
	str	x0, [sp, #8]
	str	x1, [sp, #16]
	str	x2, [sp, #24]
	b	LBB184_1
LBB184_1:
	ldr	x0, [sp, #8]
	ldr	x8, [sp, #24]
	ldr	x9, [sp, #16]
	str	x9, [sp, #32]
	str	x8, [sp, #40]
	ldr	x1, [sp, #40]
	bl	__ZN75_$LT$usize$u20$as$u20$core..slice..index..SliceIndex$LT$$u5b$T$u5d$$GT$$GT$13get_unchecked18precondition_check17h0d9f1c062821a537E
	b	LBB184_2
LBB184_2:
	ldr	x8, [sp, #16]
	ldr	x9, [sp, #8]
	ldr	x10, [sp, #24]
	stur	x8, [x29, #-16]
	stur	x10, [x29, #-8]
	add	x0, x8, x9, lsl #4
	.cfi_def_cfa wsp, 80
	ldp	x29, x30, [sp, #64]
	add	sp, sp, #80
	.cfi_def_cfa_offset 0
	.cfi_restore w30
	.cfi_restore w29
	ret
	.cfi_endproc

	.p2align	2
__ZN75_$LT$usize$u20$as$u20$core..slice..index..SliceIndex$LT$$u5b$T$u5d$$GT$$GT$13get_unchecked17hcd94d25b0092102dE:
	.cfi_startproc
	sub	sp, sp, #80
	.cfi_def_cfa_offset 80
	stp	x29, x30, [sp, #64]
	add	x29, sp, #64
	.cfi_def_cfa w29, 16
	.cfi_offset w30, -8
	.cfi_offset w29, -16
	str	x0, [sp, #8]
	str	x1, [sp, #16]
	str	x2, [sp, #24]
	b	LBB185_1
LBB185_1:
	ldr	x0, [sp, #8]
	ldr	x8, [sp, #24]
	ldr	x9, [sp, #16]
	str	x9, [sp, #32]
	str	x8, [sp, #40]
	ldr	x1, [sp, #40]
	bl	__ZN75_$LT$usize$u20$as$u20$core..slice..index..SliceIndex$LT$$u5b$T$u5d$$GT$$GT$13get_unchecked18precondition_check17h0d9f1c062821a537E
	b	LBB185_2
LBB185_2:
	ldr	x8, [sp, #16]
	ldr	x9, [sp, #8]
	ldr	x10, [sp, #24]
	stur	x8, [x29, #-16]
	stur	x10, [x29, #-8]
	add	x0, x8, x9, lsl #3
	.cfi_def_cfa wsp, 80
	ldp	x29, x30, [sp, #64]
	add	sp, sp, #80
	.cfi_def_cfa_offset 0
	.cfi_restore w30
	.cfi_restore w29
	ret
	.cfi_endproc

	.p2align	2
__ZN75_$LT$usize$u20$as$u20$core..slice..index..SliceIndex$LT$$u5b$T$u5d$$GT$$GT$13get_unchecked18precondition_check17h0d9f1c062821a537E:
	.cfi_startproc
	stp	x29, x30, [sp, #-16]!
	.cfi_def_cfa_offset 16
	mov	x29, sp
	.cfi_def_cfa w29, 16
	.cfi_offset w30, -8
	.cfi_offset w29, -16
	subs	x8, x0, x1
	b.lo	LBB186_2
	b	LBB186_1
LBB186_1:
	adrp	x0, l___unnamed_24@PAGE
	add	x0, x0, l___unnamed_24@PAGEOFF
	mov	w8, #97
	mov	x1, x8
	bl	__ZN4core9panicking14panic_nounwind17h765f3648d339fa95E
LBB186_2:
	.cfi_def_cfa wsp, 16
	ldp	x29, x30, [sp], #16
	.cfi_def_cfa_offset 0
	.cfi_restore w30
	.cfi_restore w29
	ret
	.cfi_endproc

	.p2align	2
__ZN77_$LT$alloc..raw_vec..RawVec$LT$T$C$A$GT$$u20$as$u20$core..ops..drop..Drop$GT$4drop17h05557965ee1802d3E:
	.cfi_startproc
	sub	sp, sp, #48
	.cfi_def_cfa_offset 48
	stp	x29, x30, [sp, #32]
	add	x29, sp, #32
	.cfi_def_cfa w29, 16
	.cfi_offset w30, -8
	.cfi_offset w29, -16
	str	x0, [sp]
	add	x8, sp, #8
	bl	__ZN5alloc7raw_vec19RawVec$LT$T$C$A$GT$14current_memory17h7b2d212bfa12e6b0E
	ldr	x8, [sp, #16]
	subs	x8, x8, #0
	cset	x8, ne
	subs	x8, x8, #1
	b.ne	LBB187_2
	b	LBB187_1
LBB187_1:
	ldr	x8, [sp]
	ldr	x1, [sp, #8]
	ldr	x2, [sp, #16]
	ldr	x3, [sp, #24]
	add	x0, x8, #16
	bl	__ZN63_$LT$alloc..alloc..Global$u20$as$u20$core..alloc..Allocator$GT$10deallocate17hc5fadc8bee5dda52E
	b	LBB187_2
LBB187_2:
	.cfi_def_cfa wsp, 48
	ldp	x29, x30, [sp, #32]
	add	sp, sp, #48
	.cfi_def_cfa_offset 0
	.cfi_restore w30
	.cfi_restore w29
	ret
	.cfi_endproc

	.p2align	2
__ZN77_$LT$alloc..raw_vec..RawVec$LT$T$C$A$GT$$u20$as$u20$core..ops..drop..Drop$GT$4drop17h2c166a266ee37d1eE:
	.cfi_startproc
	sub	sp, sp, #48
	.cfi_def_cfa_offset 48
	stp	x29, x30, [sp, #32]
	add	x29, sp, #32
	.cfi_def_cfa w29, 16
	.cfi_offset w30, -8
	.cfi_offset w29, -16
	str	x0, [sp]
	add	x8, sp, #8
	bl	__ZN5alloc7raw_vec19RawVec$LT$T$C$A$GT$14current_memory17h1da824d8dc9d50e6E
	ldr	x8, [sp, #16]
	subs	x8, x8, #0
	cset	x8, ne
	subs	x8, x8, #1
	b.ne	LBB188_2
	b	LBB188_1
LBB188_1:
	ldr	x8, [sp]
	ldr	x1, [sp, #8]
	ldr	x2, [sp, #16]
	ldr	x3, [sp, #24]
	add	x0, x8, #16
	bl	__ZN63_$LT$alloc..alloc..Global$u20$as$u20$core..alloc..Allocator$GT$10deallocate17hc5fadc8bee5dda52E
	b	LBB188_2
LBB188_2:
	.cfi_def_cfa wsp, 48
	ldp	x29, x30, [sp, #32]
	add	sp, sp, #48
	.cfi_def_cfa_offset 0
	.cfi_restore w30
	.cfi_restore w29
	ret
	.cfi_endproc

	.p2align	2
__ZN77_$LT$alloc..raw_vec..RawVec$LT$T$C$A$GT$$u20$as$u20$core..ops..drop..Drop$GT$4drop17h6bf902f7bfb0ce56E:
	.cfi_startproc
	sub	sp, sp, #48
	.cfi_def_cfa_offset 48
	stp	x29, x30, [sp, #32]
	add	x29, sp, #32
	.cfi_def_cfa w29, 16
	.cfi_offset w30, -8
	.cfi_offset w29, -16
	str	x0, [sp]
	add	x8, sp, #8
	bl	__ZN5alloc7raw_vec19RawVec$LT$T$C$A$GT$14current_memory17h1496de62c603abeeE
	ldr	x8, [sp, #16]
	subs	x8, x8, #0
	cset	x8, ne
	subs	x8, x8, #1
	b.ne	LBB189_2
	b	LBB189_1
LBB189_1:
	ldr	x8, [sp]
	ldr	x1, [sp, #8]
	ldr	x2, [sp, #16]
	ldr	x3, [sp, #24]
	add	x0, x8, #16
	bl	__ZN63_$LT$alloc..alloc..Global$u20$as$u20$core..alloc..Allocator$GT$10deallocate17hc5fadc8bee5dda52E
	b	LBB189_2
LBB189_2:
	.cfi_def_cfa wsp, 48
	ldp	x29, x30, [sp, #32]
	add	sp, sp, #48
	.cfi_def_cfa_offset 0
	.cfi_restore w30
	.cfi_restore w29
	ret
	.cfi_endproc

	.p2align	2
__ZN77_$LT$alloc..raw_vec..RawVec$LT$T$C$A$GT$$u20$as$u20$core..ops..drop..Drop$GT$4drop17h88c485db797c154fE:
	.cfi_startproc
	sub	sp, sp, #48
	.cfi_def_cfa_offset 48
	stp	x29, x30, [sp, #32]
	add	x29, sp, #32
	.cfi_def_cfa w29, 16
	.cfi_offset w30, -8
	.cfi_offset w29, -16
	str	x0, [sp]
	add	x8, sp, #8
	bl	__ZN5alloc7raw_vec19RawVec$LT$T$C$A$GT$14current_memory17h06466c0943309046E
	ldr	x8, [sp, #16]
	subs	x8, x8, #0
	cset	x8, ne
	subs	x8, x8, #1
	b.ne	LBB190_2
	b	LBB190_1
LBB190_1:
	ldr	x8, [sp]
	ldr	x1, [sp, #8]
	ldr	x2, [sp, #16]
	ldr	x3, [sp, #24]
	add	x0, x8, #16
	bl	__ZN63_$LT$alloc..alloc..Global$u20$as$u20$core..alloc..Allocator$GT$10deallocate17hc5fadc8bee5dda52E
	b	LBB190_2
LBB190_2:
	.cfi_def_cfa wsp, 48
	ldp	x29, x30, [sp, #32]
	add	sp, sp, #48
	.cfi_def_cfa_offset 0
	.cfi_restore w30
	.cfi_restore w29
	ret
	.cfi_endproc

	.p2align	2
__ZN77_$LT$alloc..raw_vec..RawVec$LT$T$C$A$GT$$u20$as$u20$core..ops..drop..Drop$GT$4drop17h96d84aa33aca4a86E:
	.cfi_startproc
	sub	sp, sp, #48
	.cfi_def_cfa_offset 48
	stp	x29, x30, [sp, #32]
	add	x29, sp, #32
	.cfi_def_cfa w29, 16
	.cfi_offset w30, -8
	.cfi_offset w29, -16
	str	x0, [sp]
	add	x8, sp, #8
	bl	__ZN5alloc7raw_vec19RawVec$LT$T$C$A$GT$14current_memory17h98b026aacb6e4e14E
	ldr	x8, [sp, #16]
	subs	x8, x8, #0
	cset	x8, ne
	subs	x8, x8, #1
	b.ne	LBB191_2
	b	LBB191_1
LBB191_1:
	ldr	x8, [sp]
	ldr	x1, [sp, #8]
	ldr	x2, [sp, #16]
	ldr	x3, [sp, #24]
	add	x0, x8, #16
	bl	__ZN63_$LT$alloc..alloc..Global$u20$as$u20$core..alloc..Allocator$GT$10deallocate17hc5fadc8bee5dda52E
	b	LBB191_2
LBB191_2:
	.cfi_def_cfa wsp, 48
	ldp	x29, x30, [sp, #32]
	add	sp, sp, #48
	.cfi_def_cfa_offset 0
	.cfi_restore w30
	.cfi_restore w29
	ret
	.cfi_endproc

	.p2align	2
__ZN77_$LT$alloc..raw_vec..RawVec$LT$T$C$A$GT$$u20$as$u20$core..ops..drop..Drop$GT$4drop17hc00eaaabd0855f1eE:
	.cfi_startproc
	sub	sp, sp, #48
	.cfi_def_cfa_offset 48
	stp	x29, x30, [sp, #32]
	add	x29, sp, #32
	.cfi_def_cfa w29, 16
	.cfi_offset w30, -8
	.cfi_offset w29, -16
	str	x0, [sp]
	add	x8, sp, #8
	bl	__ZN5alloc7raw_vec19RawVec$LT$T$C$A$GT$14current_memory17hc9a18b02e328c140E
	ldr	x8, [sp, #16]
	subs	x8, x8, #0
	cset	x8, ne
	subs	x8, x8, #1
	b.ne	LBB192_2
	b	LBB192_1
LBB192_1:
	ldr	x8, [sp]
	ldr	x1, [sp, #8]
	ldr	x2, [sp, #16]
	ldr	x3, [sp, #24]
	add	x0, x8, #16
	bl	__ZN63_$LT$alloc..alloc..Global$u20$as$u20$core..alloc..Allocator$GT$10deallocate17hc5fadc8bee5dda52E
	b	LBB192_2
LBB192_2:
	.cfi_def_cfa wsp, 48
	ldp	x29, x30, [sp, #32]
	add	sp, sp, #48
	.cfi_def_cfa_offset 0
	.cfi_restore w30
	.cfi_restore w29
	ret
	.cfi_endproc

	.p2align	2
__ZN77_$LT$alloc..raw_vec..RawVec$LT$T$C$A$GT$$u20$as$u20$core..ops..drop..Drop$GT$4drop17hdf0d79ed7ea6d829E:
	.cfi_startproc
	sub	sp, sp, #48
	.cfi_def_cfa_offset 48
	stp	x29, x30, [sp, #32]
	add	x29, sp, #32
	.cfi_def_cfa w29, 16
	.cfi_offset w30, -8
	.cfi_offset w29, -16
	str	x0, [sp]
	add	x8, sp, #8
	bl	__ZN5alloc7raw_vec19RawVec$LT$T$C$A$GT$14current_memory17h89b16a4e698eba2bE
	ldr	x8, [sp, #16]
	subs	x8, x8, #0
	cset	x8, ne
	subs	x8, x8, #1
	b.ne	LBB193_2
	b	LBB193_1
LBB193_1:
	ldr	x8, [sp]
	ldr	x1, [sp, #8]
	ldr	x2, [sp, #16]
	ldr	x3, [sp, #24]
	add	x0, x8, #16
	bl	__ZN63_$LT$alloc..alloc..Global$u20$as$u20$core..alloc..Allocator$GT$10deallocate17hc5fadc8bee5dda52E
	b	LBB193_2
LBB193_2:
	.cfi_def_cfa wsp, 48
	ldp	x29, x30, [sp, #32]
	add	sp, sp, #48
	.cfi_def_cfa_offset 0
	.cfi_restore w30
	.cfi_restore w29
	ret
	.cfi_endproc

	.p2align	2
__ZN77_$LT$alloc..raw_vec..RawVec$LT$T$C$A$GT$$u20$as$u20$core..ops..drop..Drop$GT$4drop17hef91980bc59f6821E:
	.cfi_startproc
	sub	sp, sp, #48
	.cfi_def_cfa_offset 48
	stp	x29, x30, [sp, #32]
	add	x29, sp, #32
	.cfi_def_cfa w29, 16
	.cfi_offset w30, -8
	.cfi_offset w29, -16
	str	x0, [sp]
	add	x8, sp, #8
	bl	__ZN5alloc7raw_vec19RawVec$LT$T$C$A$GT$14current_memory17hd12c8d1d3bd6f368E
	ldr	x8, [sp, #16]
	subs	x8, x8, #0
	cset	x8, ne
	subs	x8, x8, #1
	b.ne	LBB194_2
	b	LBB194_1
LBB194_1:
	ldr	x8, [sp]
	ldr	x1, [sp, #8]
	ldr	x2, [sp, #16]
	ldr	x3, [sp, #24]
	add	x0, x8, #16
	bl	__ZN63_$LT$alloc..alloc..Global$u20$as$u20$core..alloc..Allocator$GT$10deallocate17hc5fadc8bee5dda52E
	b	LBB194_2
LBB194_2:
	.cfi_def_cfa wsp, 48
	ldp	x29, x30, [sp, #32]
	add	sp, sp, #48
	.cfi_def_cfa_offset 0
	.cfi_restore w30
	.cfi_restore w29
	ret
	.cfi_endproc

	.p2align	2
__ZN91_$LT$core..slice..iter..Iter$LT$T$GT$$u20$as$u20$core..iter..traits..iterator..Iterator$GT$4next17h478cb3728ccf0c3cE:
	.cfi_startproc
	sub	sp, sp, #48
	.cfi_def_cfa_offset 48
	str	x0, [sp]
	b	LBB195_1
LBB195_1:
	ldr	x8, [sp]
	ldr	x9, [x8, #8]
	str	x9, [sp, #24]
	ldr	x8, [x8]
	ldr	x9, [sp, #24]
	subs	x8, x8, x9
	cset	w8, eq
	strb	w8, [sp, #23]
	b	LBB195_2
LBB195_2:
	ldrb	w8, [sp, #23]
	tbnz	w8, #0, LBB195_4
	b	LBB195_3
LBB195_3:
	ldr	x8, [sp]
	ldr	x8, [x8]
	str	x8, [sp, #32]
	b	LBB195_5
LBB195_4:
	str	xzr, [sp, #8]
	b	LBB195_7
LBB195_5:
	ldr	x9, [sp]
	ldr	x8, [x9]
	add	x8, x8, #8
	str	x8, [sp, #40]
	ldr	x8, [sp, #40]
	str	x8, [x9]
	b	LBB195_6
LBB195_6:
	ldr	x8, [sp, #32]
	str	x8, [sp, #8]
	b	LBB195_7
LBB195_7:
	ldr	x0, [sp, #8]
	add	sp, sp, #48
	.cfi_def_cfa_offset 0
	ret
	.cfi_endproc

	.p2align	2
__ZN91_$LT$core..slice..iter..Iter$LT$T$GT$$u20$as$u20$core..iter..traits..iterator..Iterator$GT$4next17h8db6a8588b72297cE:
	.cfi_startproc
	sub	sp, sp, #48
	.cfi_def_cfa_offset 48
	str	x0, [sp]
	b	LBB196_1
LBB196_1:
	ldr	x8, [sp]
	ldr	x9, [x8, #8]
	str	x9, [sp, #24]
	ldr	x8, [x8]
	ldr	x9, [sp, #24]
	subs	x8, x8, x9
	cset	w8, eq
	strb	w8, [sp, #23]
	b	LBB196_2
LBB196_2:
	ldrb	w8, [sp, #23]
	tbnz	w8, #0, LBB196_4
	b	LBB196_3
LBB196_3:
	ldr	x8, [sp]
	ldr	x8, [x8]
	str	x8, [sp, #32]
	b	LBB196_5
LBB196_4:
	str	xzr, [sp, #8]
	b	LBB196_7
LBB196_5:
	ldr	x9, [sp]
	ldr	x8, [x9]
	add	x8, x8, #48
	str	x8, [sp, #40]
	ldr	x8, [sp, #40]
	str	x8, [x9]
	b	LBB196_6
LBB196_6:
	ldr	x8, [sp, #32]
	str	x8, [sp, #8]
	b	LBB196_7
LBB196_7:
	ldr	x0, [sp, #8]
	add	sp, sp, #48
	.cfi_def_cfa_offset 0
	ret
	.cfi_endproc

	.p2align	2
__ZN91_$LT$core..slice..iter..Iter$LT$T$GT$$u20$as$u20$core..iter..traits..iterator..Iterator$GT$4next17hf0f48a1916b92d8eE:
	.cfi_startproc
	sub	sp, sp, #48
	.cfi_def_cfa_offset 48
	str	x0, [sp]
	b	LBB197_1
LBB197_1:
	ldr	x8, [sp]
	ldr	x9, [x8, #8]
	str	x9, [sp, #24]
	ldr	x8, [x8]
	ldr	x9, [sp, #24]
	subs	x8, x8, x9
	cset	w8, eq
	strb	w8, [sp, #23]
	b	LBB197_2
LBB197_2:
	ldrb	w8, [sp, #23]
	tbnz	w8, #0, LBB197_4
	b	LBB197_3
LBB197_3:
	ldr	x8, [sp]
	ldr	x8, [x8]
	str	x8, [sp, #32]
	b	LBB197_5
LBB197_4:
	str	xzr, [sp, #8]
	b	LBB197_7
LBB197_5:
	ldr	x9, [sp]
	ldr	x8, [x9]
	add	x8, x8, #16
	str	x8, [sp, #40]
	ldr	x8, [sp, #40]
	str	x8, [x9]
	b	LBB197_6
LBB197_6:
	ldr	x8, [sp, #32]
	str	x8, [sp, #8]
	b	LBB197_7
LBB197_7:
	ldr	x0, [sp, #8]
	add	sp, sp, #48
	.cfi_def_cfa_offset 0
	ret
	.cfi_endproc

	.p2align	2
__ZN91_$LT$std..panicking..begin_panic..Payload$LT$A$GT$$u20$as$u20$core..panic..PanicPayload$GT$3get17hf57440273286eec3E:
	.cfi_startproc
	sub	sp, sp, #32
	.cfi_def_cfa_offset 32
	stp	x29, x30, [sp, #16]
	add	x29, sp, #16
	.cfi_def_cfa w29, 16
	.cfi_offset w30, -8
	.cfi_offset w29, -16
	str	x0, [sp, #8]
	ldr	x8, [x0]
	subs	x8, x8, #0
	cset	x8, ne
	cbnz	x8, LBB198_2
	b	LBB198_1
LBB198_1:
	bl	__ZN3std7process5abort17h881ea5f7c9561a59E
LBB198_2:
	ldr	x0, [sp, #8]
	adrp	x1, l___unnamed_25@PAGE
	add	x1, x1, l___unnamed_25@PAGEOFF
	.cfi_def_cfa wsp, 32
	ldp	x29, x30, [sp, #16]
	add	sp, sp, #32
	.cfi_def_cfa_offset 0
	.cfi_restore w30
	.cfi_restore w29
	ret
	.cfi_endproc

	.p2align	2
__ZN91_$LT$std..panicking..begin_panic..Payload$LT$A$GT$$u20$as$u20$core..panic..PanicPayload$GT$8take_box17hac5a8a1f2265d565E:
Lfunc_begin22:
	.cfi_startproc
	.cfi_personality 155, _rust_eh_personality
	.cfi_lsda 16, Lexception22
	sub	sp, sp, #128
	.cfi_def_cfa_offset 128
	stp	x29, x30, [sp, #112]
	add	x29, sp, #112
	.cfi_def_cfa w29, 16
	.cfi_offset w30, -8
	.cfi_offset w29, -16
	str	xzr, [sp, #48]
	ldr	x9, [x0]
	ldr	x8, [x0, #8]
	str	x9, [sp, #32]
	str	x8, [sp, #40]
	ldr	x9, [sp, #48]
	ldr	x8, [sp, #56]
	str	x9, [x0]
	str	x8, [x0, #8]
	ldr	x8, [sp, #32]
	subs	x8, x8, #0
	cset	x8, ne
	cbnz	x8, LBB199_2
	b	LBB199_1
LBB199_1:
	bl	__ZN3std7process5abort17h881ea5f7c9561a59E
LBB199_2:
	ldr	x8, [sp, #32]
	str	x8, [sp, #8]
	ldr	x8, [sp, #40]
	str	x8, [sp, #16]
Ltmp135:
	mov	w8, #16
	mov	x0, x8
	mov	w8, #8
	mov	x1, x8
	bl	__ZN5alloc5alloc15exchange_malloc17h941cdcdc6bb63bd7E
	str	x0, [sp, #24]
Ltmp136:
	b	LBB199_4
LBB199_3:
Ltmp137:
	stur	x0, [x29, #-16]
	mov	x8, x1
	stur	w8, [x29, #-8]
	ldur	x0, [x29, #-16]
	bl	__Unwind_Resume
LBB199_4:
	ldr	x8, [sp, #24]
	ldr	x9, [sp, #16]
	ldr	x10, [sp, #8]
	str	x10, [x8]
	str	x9, [x8, #8]
	stur	x8, [x29, #-48]
	adrp	x8, l___unnamed_25@PAGE
	add	x8, x8, l___unnamed_25@PAGEOFF
	stur	x8, [x29, #-40]
	ldur	x0, [x29, #-48]
	ldur	x1, [x29, #-40]
	bl	__ZN4core10intrinsics16retag_box_to_raw17h5bee6c45725c9c82E
	.cfi_def_cfa wsp, 128
	ldp	x29, x30, [sp, #112]
	add	sp, sp, #128
	.cfi_def_cfa_offset 0
	.cfi_restore w30
	.cfi_restore w29
	ret
Lfunc_end22:
	.cfi_endproc
	.section	__TEXT,__gcc_except_tab
	.p2align	2, 0x0
GCC_except_table199:
Lexception22:
	.byte	255
	.byte	255
	.byte	1
	.uleb128 Lcst_end22-Lcst_begin22
Lcst_begin22:
	.uleb128 Lfunc_begin22-Lfunc_begin22
	.uleb128 Ltmp135-Lfunc_begin22
	.byte	0
	.byte	0
	.uleb128 Ltmp135-Lfunc_begin22
	.uleb128 Ltmp136-Ltmp135
	.uleb128 Ltmp137-Lfunc_begin22
	.byte	0
	.uleb128 Ltmp136-Lfunc_begin22
	.uleb128 Lfunc_end22-Ltmp136
	.byte	0
	.byte	0
Lcst_end22:
	.p2align	2, 0x0

	.section	__TEXT,__text,regular,pure_instructions
	.p2align	2
__ZN4main12instructions7Operand10unwrap_src17h8ce2eb25021ad200E:
	.cfi_startproc
	sub	sp, sp, #32
	.cfi_def_cfa_offset 32
	stp	x29, x30, [sp, #16]
	add	x29, sp, #16
	.cfi_def_cfa w29, 16
	.cfi_offset w30, -8
	.cfi_offset w29, -16
	.cfi_remember_state
	str	x0, [sp, #8]
	ldrb	w8, [x0]
	cbnz	x8, LBB200_2
	b	LBB200_1
LBB200_1:
	ldr	x8, [sp, #8]
	add	x0, x8, #8
	.cfi_def_cfa wsp, 32
	ldp	x29, x30, [sp, #16]
	add	sp, sp, #32
	.cfi_def_cfa_offset 0
	.cfi_restore w30
	.cfi_restore w29
	ret
LBB200_2:
	.cfi_restore_state
	adrp	x0, l___unnamed_26@PAGE
	add	x0, x0, l___unnamed_26@PAGEOFF
	mov	w8, #12
	mov	x1, x8
	adrp	x2, l___unnamed_27@PAGE
	add	x2, x2, l___unnamed_27@PAGEOFF
	bl	__ZN3std9panicking11begin_panic17had5db39b47896b4cE
	.cfi_endproc

	.p2align	2
__ZN4main12instructions7Operand10unwrap_dst17h7efd48c761d53b64E:
	.cfi_startproc
	sub	sp, sp, #32
	.cfi_def_cfa_offset 32
	stp	x29, x30, [sp, #16]
	add	x29, sp, #16
	.cfi_def_cfa w29, 16
	.cfi_offset w30, -8
	.cfi_offset w29, -16
	.cfi_remember_state
	str	x0, [sp, #8]
	ldrb	w8, [x0]
	subs	x8, x8, #1
	b.ne	LBB201_2
	b	LBB201_1
LBB201_1:
	ldr	x8, [sp, #8]
	add	x0, x8, #1
	.cfi_def_cfa wsp, 32
	ldp	x29, x30, [sp, #16]
	add	sp, sp, #32
	.cfi_def_cfa_offset 0
	.cfi_restore w30
	.cfi_restore w29
	ret
LBB201_2:
	.cfi_restore_state
	adrp	x0, l___unnamed_28@PAGE
	add	x0, x0, l___unnamed_28@PAGEOFF
	mov	w8, #12
	mov	x1, x8
	adrp	x2, l___unnamed_29@PAGE
	add	x2, x2, l___unnamed_29@PAGEOFF
	bl	__ZN3std9panicking11begin_panic17had5db39b47896b4cE
	.cfi_endproc

	.p2align	2
__ZN4main12instructions7Operand20unwrap_instrs_amount17h1886dad8a24573ecE:
	.cfi_startproc
	sub	sp, sp, #32
	.cfi_def_cfa_offset 32
	stp	x29, x30, [sp, #16]
	add	x29, sp, #16
	.cfi_def_cfa w29, 16
	.cfi_offset w30, -8
	.cfi_offset w29, -16
	.cfi_remember_state
	str	x0, [sp, #8]
	ldrb	w8, [x0]
	subs	x8, x8, #2
	b.ne	LBB202_2
	b	LBB202_1
LBB202_1:
	ldr	x8, [sp, #8]
	ldr	x0, [x8, #8]
	.cfi_def_cfa wsp, 32
	ldp	x29, x30, [sp, #16]
	add	sp, sp, #32
	.cfi_def_cfa_offset 0
	.cfi_restore w30
	.cfi_restore w29
	ret
LBB202_2:
	.cfi_restore_state
	adrp	x0, l___unnamed_30@PAGE
	add	x0, x0, l___unnamed_30@PAGEOFF
	mov	w8, #22
	mov	x1, x8
	adrp	x2, l___unnamed_31@PAGE
	add	x2, x2, l___unnamed_31@PAGEOFF
	bl	__ZN3std9panicking11begin_panic17had5db39b47896b4cE
	.cfi_endproc

	.p2align	2
__ZN4main12instructions7Operand16unwrap_instr_ptr17hc6519018ee9163c9E:
	.cfi_startproc
	sub	sp, sp, #32
	.cfi_def_cfa_offset 32
	stp	x29, x30, [sp, #16]
	add	x29, sp, #16
	.cfi_def_cfa w29, 16
	.cfi_offset w30, -8
	.cfi_offset w29, -16
	.cfi_remember_state
	str	x0, [sp, #8]
	ldrb	w8, [x0]
	subs	x8, x8, #3
	b.ne	LBB203_2
	b	LBB203_1
LBB203_1:
	ldr	x8, [sp, #8]
	ldr	x0, [x8, #8]
	.cfi_def_cfa wsp, 32
	ldp	x29, x30, [sp, #16]
	add	sp, sp, #32
	.cfi_def_cfa_offset 0
	.cfi_restore w30
	.cfi_restore w29
	ret
LBB203_2:
	.cfi_restore_state
	adrp	x0, l___unnamed_32@PAGE
	add	x0, x0, l___unnamed_32@PAGEOFF
	mov	w8, #18
	mov	x1, x8
	adrp	x2, l___unnamed_33@PAGE
	add	x2, x2, l___unnamed_33@PAGEOFF
	bl	__ZN3std9panicking11begin_panic17had5db39b47896b4cE
	.cfi_endproc

	.p2align	2
__ZN4main12instructions7Operand14unwrap_jmp_pos17h49d5dd2a8bc7be66E:
	.cfi_startproc
	sub	sp, sp, #32
	.cfi_def_cfa_offset 32
	stp	x29, x30, [sp, #16]
	add	x29, sp, #16
	.cfi_def_cfa w29, 16
	.cfi_offset w30, -8
	.cfi_offset w29, -16
	.cfi_remember_state
	str	x0, [sp, #8]
	ldrb	w8, [x0]
	subs	x8, x8, #4
	b.ne	LBB204_2
	b	LBB204_1
LBB204_1:
	ldr	x8, [sp, #8]
	ldr	x0, [x8, #8]
	.cfi_def_cfa wsp, 32
	ldp	x29, x30, [sp, #16]
	add	sp, sp, #32
	.cfi_def_cfa_offset 0
	.cfi_restore w30
	.cfi_restore w29
	ret
LBB204_2:
	.cfi_restore_state
	adrp	x0, l___unnamed_34@PAGE
	add	x0, x0, l___unnamed_34@PAGEOFF
	mov	w8, #16
	mov	x1, x8
	adrp	x2, l___unnamed_35@PAGE
	add	x2, x2, l___unnamed_35@PAGEOFF
	bl	__ZN3std9panicking11begin_panic17had5db39b47896b4cE
	.cfi_endproc

	.p2align	2
__ZN4main12instructions7Operand16unwrap_stack_ptr17h6d961735c953a191E:
	.cfi_startproc
	sub	sp, sp, #32
	.cfi_def_cfa_offset 32
	stp	x29, x30, [sp, #16]
	add	x29, sp, #16
	.cfi_def_cfa w29, 16
	.cfi_offset w30, -8
	.cfi_offset w29, -16
	.cfi_remember_state
	str	x0, [sp, #8]
	ldrb	w8, [x0]
	subs	x8, x8, #5
	b.ne	LBB205_2
	b	LBB205_1
LBB205_1:
	ldr	x8, [sp, #8]
	add	x0, x8, #8
	.cfi_def_cfa wsp, 32
	ldp	x29, x30, [sp, #16]
	add	sp, sp, #32
	.cfi_def_cfa_offset 0
	.cfi_restore w30
	.cfi_restore w29
	ret
LBB205_2:
	.cfi_restore_state
	adrp	x0, l___unnamed_36@PAGE
	add	x0, x0, l___unnamed_36@PAGEOFF
	mov	w8, #18
	mov	x1, x8
	adrp	x2, l___unnamed_37@PAGE
	add	x2, x2, l___unnamed_37@PAGEOFF
	bl	__ZN3std9panicking11begin_panic17had5db39b47896b4cE
	.cfi_endproc

	.p2align	2
__ZN4main12instructions7Operand17unwrap_args_count17h383375d773e28d50E:
	.cfi_startproc
	sub	sp, sp, #32
	.cfi_def_cfa_offset 32
	stp	x29, x30, [sp, #16]
	add	x29, sp, #16
	.cfi_def_cfa w29, 16
	.cfi_offset w30, -8
	.cfi_offset w29, -16
	.cfi_remember_state
	str	x0, [sp, #8]
	ldrb	w8, [x0]
	subs	x8, x8, #6
	b.ne	LBB206_2
	b	LBB206_1
LBB206_1:
	ldr	x8, [sp, #8]
	ldr	x0, [x8, #8]
	.cfi_def_cfa wsp, 32
	ldp	x29, x30, [sp, #16]
	add	sp, sp, #32
	.cfi_def_cfa_offset 0
	.cfi_restore w30
	.cfi_restore w29
	ret
LBB206_2:
	.cfi_restore_state
	adrp	x0, l___unnamed_38@PAGE
	add	x0, x0, l___unnamed_38@PAGEOFF
	mov	w8, #19
	mov	x1, x8
	adrp	x2, l___unnamed_39@PAGE
	add	x2, x2, l___unnamed_39@PAGEOFF
	bl	__ZN3std9panicking11begin_panic17had5db39b47896b4cE
	.cfi_endproc

	.p2align	2
__ZN4main12instructions15HaltInstruction3new17hc69fe866ca78bfb8E:
	.cfi_startproc
	ret
	.cfi_endproc

	.p2align	2
__ZN4main12instructions15HaltInstruction7execute17h3d94b71409f21791E:
	.cfi_startproc
	stp	x29, x30, [sp, #-16]!
	.cfi_def_cfa_offset 16
	mov	x29, sp
	.cfi_def_cfa w29, 16
	.cfi_offset w30, -8
	.cfi_offset w29, -16
	mov	x0, x4
	bl	__ZN4main9Registers6inc_ip17hb67aa2a2bee90fdaE
	.cfi_def_cfa wsp, 16
	ldp	x29, x30, [sp], #16
	.cfi_def_cfa_offset 0
	.cfi_restore w30
	.cfi_restore w29
	ret
	.cfi_endproc

	.p2align	2
__ZN4main12instructions14AddInstruction3new17h1fa494a4c80f5d48E:
	.cfi_startproc
	strb	w0, [x8, #32]
	ldr	q0, [x1]
	str	q0, [x8]
	ldr	q0, [x2]
	str	q0, [x8, #16]
	ret
	.cfi_endproc

	.p2align	2
__ZN4main12instructions14AddInstruction7execute17hbbf2fe13542e736cE:
	.cfi_startproc
	sub	sp, sp, #112
	.cfi_def_cfa_offset 112
	stp	x29, x30, [sp, #96]
	add	x29, sp, #96
	.cfi_def_cfa w29, 16
	.cfi_offset w30, -8
	.cfi_offset w29, -16
	str	x0, [sp]
	str	x1, [sp, #32]
	str	x2, [sp, #40]
	str	x3, [sp, #48]
	stur	x4, [x29, #-40]
	ldr	x1, [sp, #32]
	ldr	x2, [sp, #40]
	ldr	x3, [sp, #48]
	ldur	x4, [x29, #-40]
	bl	__ZN4main7vm_util3Src7get_val17h89eb451d16de3c73E
	mov	x1, x0
	ldr	x0, [sp]
	str	x1, [sp, #8]
	ldr	x1, [sp, #32]
	ldr	x2, [sp, #40]
	ldr	x3, [sp, #48]
	ldur	x4, [x29, #-40]
	add	x0, x0, #16
	bl	__ZN4main7vm_util3Src7get_val17h89eb451d16de3c73E
	ldr	x8, [sp]
	mov	x1, x0
	ldr	x0, [sp, #8]
	ldur	x9, [x29, #-40]
	str	x9, [sp, #16]
	ldrb	w8, [x8, #32]
	str	w8, [sp, #28]
	sub	x8, x29, #16
	bl	__ZN4main7vm_util5Value3add17hc9b1ea27128f8b31E
	ldr	x0, [sp, #16]
	ldr	w1, [sp, #28]
	ldur	q0, [x29, #-16]
	sub	x2, x29, #32
	stur	q0, [x29, #-32]
	bl	__ZN4main9Registers7set_reg17h7064e2aa42c06f9eE
	ldur	x0, [x29, #-40]
	bl	__ZN4main9Registers6inc_ip17hb67aa2a2bee90fdaE
	.cfi_def_cfa wsp, 112
	ldp	x29, x30, [sp, #96]
	add	sp, sp, #112
	.cfi_def_cfa_offset 0
	.cfi_restore w30
	.cfi_restore w29
	ret
	.cfi_endproc

	.p2align	2
__ZN4main12instructions14SubInstruction3new17ha4ff55e7ef410ce5E:
	.cfi_startproc
	strb	w0, [x8, #32]
	ldr	q0, [x1]
	str	q0, [x8]
	ldr	q0, [x2]
	str	q0, [x8, #16]
	ret
	.cfi_endproc

	.p2align	2
__ZN4main12instructions14SubInstruction7execute17h32bbd702aef68a41E:
	.cfi_startproc
	sub	sp, sp, #112
	.cfi_def_cfa_offset 112
	stp	x29, x30, [sp, #96]
	add	x29, sp, #96
	.cfi_def_cfa w29, 16
	.cfi_offset w30, -8
	.cfi_offset w29, -16
	str	x0, [sp, #32]
	str	x1, [sp, #8]
	str	x2, [sp, #16]
	str	x3, [sp, #24]
	stur	x4, [x29, #-40]
	bl	__ZN4main7vm_util3Src7get_val17h89eb451d16de3c73E
	ldr	x1, [sp, #8]
	ldr	x2, [sp, #16]
	ldr	x3, [sp, #24]
	ldur	x4, [x29, #-40]
	mov	x5, x0
	ldr	x0, [sp, #32]
	str	x5, [sp, #40]
	add	x0, x0, #16
	bl	__ZN4main7vm_util3Src7get_val17h89eb451d16de3c73E
	ldr	x8, [sp, #32]
	mov	x1, x0
	ldr	x0, [sp, #40]
	ldrb	w8, [x8, #32]
	stur	w8, [x29, #-44]
	sub	x8, x29, #16
	bl	__ZN4main7vm_util5Value3sub17hd68d6234769dfb5dE
	ldur	w1, [x29, #-44]
	ldur	x0, [x29, #-40]
	ldur	q0, [x29, #-16]
	sub	x2, x29, #32
	stur	q0, [x29, #-32]
	bl	__ZN4main9Registers7set_reg17h7064e2aa42c06f9eE
	ldur	x0, [x29, #-40]
	bl	__ZN4main9Registers6inc_ip17hb67aa2a2bee90fdaE
	.cfi_def_cfa wsp, 112
	ldp	x29, x30, [sp, #96]
	add	sp, sp, #112
	.cfi_def_cfa_offset 0
	.cfi_restore w30
	.cfi_restore w29
	ret
	.cfi_endproc

	.p2align	2
__ZN4main12instructions14MulInstruction7execute17hc1927e975430bb56E:
	.cfi_startproc
	sub	sp, sp, #112
	.cfi_def_cfa_offset 112
	stp	x29, x30, [sp, #96]
	add	x29, sp, #96
	.cfi_def_cfa w29, 16
	.cfi_offset w30, -8
	.cfi_offset w29, -16
	str	x0, [sp, #32]
	str	x1, [sp, #8]
	str	x2, [sp, #16]
	str	x3, [sp, #24]
	stur	x4, [x29, #-40]
	bl	__ZN4main7vm_util3Src7get_val17h89eb451d16de3c73E
	ldr	x1, [sp, #8]
	ldr	x2, [sp, #16]
	ldr	x3, [sp, #24]
	ldur	x4, [x29, #-40]
	mov	x5, x0
	ldr	x0, [sp, #32]
	str	x5, [sp, #40]
	add	x0, x0, #16
	bl	__ZN4main7vm_util3Src7get_val17h89eb451d16de3c73E
	ldr	x8, [sp, #32]
	mov	x1, x0
	ldr	x0, [sp, #40]
	ldrb	w8, [x8, #32]
	stur	w8, [x29, #-44]
	sub	x8, x29, #16
	bl	__ZN4main7vm_util5Value3mul17he602582e17797115E
	ldur	w1, [x29, #-44]
	ldur	x0, [x29, #-40]
	ldur	q0, [x29, #-16]
	sub	x2, x29, #32
	stur	q0, [x29, #-32]
	bl	__ZN4main9Registers7set_reg17h7064e2aa42c06f9eE
	ldur	x0, [x29, #-40]
	bl	__ZN4main9Registers6inc_ip17hb67aa2a2bee90fdaE
	.cfi_def_cfa wsp, 112
	ldp	x29, x30, [sp, #96]
	add	sp, sp, #112
	.cfi_def_cfa_offset 0
	.cfi_restore w30
	.cfi_restore w29
	ret
	.cfi_endproc

	.p2align	2
__ZN4main12instructions14DivInstruction7execute17h9b107b61b04a5120E:
	.cfi_startproc
	sub	sp, sp, #112
	.cfi_def_cfa_offset 112
	stp	x29, x30, [sp, #96]
	add	x29, sp, #96
	.cfi_def_cfa w29, 16
	.cfi_offset w30, -8
	.cfi_offset w29, -16
	str	x0, [sp, #32]
	str	x1, [sp, #8]
	str	x2, [sp, #16]
	str	x3, [sp, #24]
	stur	x4, [x29, #-40]
	bl	__ZN4main7vm_util3Src7get_val17h89eb451d16de3c73E
	ldr	x1, [sp, #8]
	ldr	x2, [sp, #16]
	ldr	x3, [sp, #24]
	ldur	x4, [x29, #-40]
	mov	x5, x0
	ldr	x0, [sp, #32]
	str	x5, [sp, #40]
	add	x0, x0, #16
	bl	__ZN4main7vm_util3Src7get_val17h89eb451d16de3c73E
	ldr	x8, [sp, #32]
	mov	x1, x0
	ldr	x0, [sp, #40]
	ldrb	w8, [x8, #32]
	stur	w8, [x29, #-44]
	sub	x8, x29, #16
	bl	__ZN4main7vm_util5Value3div17he68c9a11be5f0467E
	ldur	w1, [x29, #-44]
	ldur	x0, [x29, #-40]
	ldur	q0, [x29, #-16]
	sub	x2, x29, #32
	stur	q0, [x29, #-32]
	bl	__ZN4main9Registers7set_reg17h7064e2aa42c06f9eE
	ldur	x0, [x29, #-40]
	bl	__ZN4main9Registers6inc_ip17hb67aa2a2bee90fdaE
	.cfi_def_cfa wsp, 112
	ldp	x29, x30, [sp, #96]
	add	sp, sp, #112
	.cfi_def_cfa_offset 0
	.cfi_restore w30
	.cfi_restore w29
	ret
	.cfi_endproc

	.p2align	2
__ZN4main12instructions23PushFunctionInstruction3new17h931a333ebe77dcd9E:
	.cfi_startproc
	sub	sp, sp, #16
	.cfi_def_cfa_offset 16
	str	x0, [sp, #8]
	ldr	x0, [sp, #8]
	add	sp, sp, #16
	.cfi_def_cfa_offset 0
	ret
	.cfi_endproc

	.p2align	2
__ZN4main12instructions23PushFunctionInstruction7execute17h69237e0641c80bcfE:
	.cfi_startproc
	sub	sp, sp, #64
	.cfi_def_cfa_offset 64
	stp	x29, x30, [sp, #48]
	add	x29, sp, #48
	.cfi_def_cfa w29, 16
	.cfi_offset w30, -8
	.cfi_offset w29, -16
	.cfi_remember_state
	str	x0, [sp, #16]
	str	x3, [sp, #8]
	mov	x0, x4
	str	x0, [sp]
	bl	__ZN4main9Registers6get_ip17hc33f2887d7bd86c3E
	mov	x8, x0
	ldr	x0, [sp, #8]
	sub	x1, x29, #16
	stur	x8, [x29, #-8]
	mov	w8, #3
	sturb	w8, [x29, #-16]
	bl	__ZN4main7vm_util5Stack4push17hf8474d57900a6c0fE
	ldr	x0, [sp, #16]
	ldr	x8, [x0]
	adds	x8, x8, #1
	str	x8, [sp, #24]
	cset	w8, hs
	tbnz	w8, #0, LBB216_2
	b	LBB216_1
LBB216_1:
	ldr	x1, [sp, #24]
	ldr	x0, [sp]
	bl	__ZN4main9Registers6add_ip17hb3c329094c540883E
	.cfi_def_cfa wsp, 64
	ldp	x29, x30, [sp, #48]
	add	sp, sp, #64
	.cfi_def_cfa_offset 0
	.cfi_restore w30
	.cfi_restore w29
	ret
LBB216_2:
	.cfi_restore_state
	adrp	x0, _str.2@PAGE
	add	x0, x0, _str.2@PAGEOFF
	mov	w8, #28
	mov	x1, x8
	adrp	x2, l___unnamed_40@PAGE
	add	x2, x2, l___unnamed_40@PAGEOFF
	bl	__ZN4core9panicking5panic17hc59c8a709a9b37aeE
	.cfi_endproc

	.p2align	2
__ZN4main12instructions19CmpLtJmpInstruction3new17h9fe81541418d7fd0E:
	.cfi_startproc
	ldr	q0, [x0]
	str	q0, [x8, #16]
	ldr	q0, [x1]
	str	q0, [x8, #32]
	str	x2, [x8]
	str	x3, [x8, #8]
	ret
	.cfi_endproc

	.p2align	2
__ZN4main12instructions19CmpLtJmpInstruction7execute17h8adc5d8c8dfd3149E:
	.cfi_startproc
	sub	sp, sp, #64
	.cfi_def_cfa_offset 64
	stp	x29, x30, [sp, #48]
	add	x29, sp, #48
	.cfi_def_cfa w29, 16
	.cfi_offset w30, -8
	.cfi_offset w29, -16
	stur	x0, [x29, #-16]
	str	x1, [sp]
	str	x2, [sp, #8]
	str	x3, [sp, #16]
	str	x4, [sp, #24]
	add	x0, x0, #16
	bl	__ZN4main7vm_util3Src7get_val17h89eb451d16de3c73E
	ldr	x1, [sp]
	ldr	x2, [sp, #8]
	ldr	x3, [sp, #16]
	ldr	x4, [sp, #24]
	mov	x5, x0
	ldur	x0, [x29, #-16]
	stur	x5, [x29, #-8]
	add	x0, x0, #32
	bl	__ZN4main7vm_util3Src7get_val17h89eb451d16de3c73E
	mov	x1, x0
	ldur	x0, [x29, #-8]
	bl	__ZN4main7vm_util5Value5cmp_l17hf0d8db80eb6e44ccE
	tbnz	w0, #0, LBB218_2
	b	LBB218_1
LBB218_1:
	ldr	x0, [sp, #24]
	ldur	x8, [x29, #-16]
	ldr	x1, [x8, #8]
	bl	__ZN4main9Registers6set_ip17h5ac825b8f5ec62e9E
	b	LBB218_3
LBB218_2:
	ldr	x0, [sp, #24]
	ldur	x8, [x29, #-16]
	ldr	x1, [x8]
	bl	__ZN4main9Registers6set_ip17h5ac825b8f5ec62e9E
	b	LBB218_3
LBB218_3:
	.cfi_def_cfa wsp, 64
	ldp	x29, x30, [sp, #48]
	add	sp, sp, #64
	.cfi_def_cfa_offset 0
	.cfi_restore w30
	.cfi_restore w29
	ret
	.cfi_endproc

	.p2align	2
__ZN4main12instructions15CallInstruction3new17h81b5345dc87d0d3aE:
	.cfi_startproc
	str	x0, [x8, #8]
	strb	w1, [x8, #16]
	str	x2, [x8]
	ret
	.cfi_endproc

	.p2align	2
__ZN4main12instructions15CallInstruction7execute17h9b2d9394b717ebfbE:
	.cfi_startproc
	sub	sp, sp, #64
	.cfi_def_cfa_offset 64
	stp	x29, x30, [sp, #48]
	add	x29, sp, #48
	.cfi_def_cfa w29, 16
	.cfi_offset w30, -8
	.cfi_offset w29, -16
	.cfi_remember_state
	stur	x0, [x29, #-16]
	mov	x0, x3
	str	x0, [sp, #16]
	str	x4, [sp, #24]
	bl	__ZN4main7vm_util5Stack3len17h2e0f01840a525a37E
	ldur	x8, [x29, #-16]
	ldr	x8, [x8]
	subs	x9, x0, x8
	stur	x9, [x29, #-8]
	subs	x8, x0, x8
	b.lo	LBB220_2
	b	LBB220_1
LBB220_1:
	ldr	x0, [sp, #16]
	ldur	x1, [x29, #-8]
	bl	__ZN4main7vm_util5Stack16push_stack_frame17ha9f296821220ecf7E
	ldur	x8, [x29, #-16]
	ldr	x0, [sp, #16]
	add	x1, x8, #8
	bl	__ZN4main7vm_util5Stack3get17h6f97994b4e633039E
	bl	__ZN4main7vm_util10StackValue13unwrap_fn_ptr17hc6af2877f010ef79E
	adds	x8, x0, #1
	str	x8, [sp, #8]
	cset	w8, hs
	tbnz	w8, #0, LBB220_4
	b	LBB220_3
LBB220_2:
	adrp	x0, _str.5@PAGE
	add	x0, x0, _str.5@PAGEOFF
	mov	w8, #33
	mov	x1, x8
	adrp	x2, l___unnamed_41@PAGE
	add	x2, x2, l___unnamed_41@PAGEOFF
	bl	__ZN4core9panicking5panic17hc59c8a709a9b37aeE
LBB220_3:
	ldr	x1, [sp, #8]
	ldr	x0, [sp, #24]
	bl	__ZN4main9Registers6set_ip17h5ac825b8f5ec62e9E
	.cfi_def_cfa wsp, 64
	ldp	x29, x30, [sp, #48]
	add	sp, sp, #64
	.cfi_def_cfa_offset 0
	.cfi_restore w30
	.cfi_restore w29
	ret
LBB220_4:
	.cfi_restore_state
	adrp	x0, _str.2@PAGE
	add	x0, x0, _str.2@PAGEOFF
	mov	w8, #28
	mov	x1, x8
	adrp	x2, l___unnamed_42@PAGE
	add	x2, x2, l___unnamed_42@PAGEOFF
	bl	__ZN4core9panicking5panic17hc59c8a709a9b37aeE
	.cfi_endproc

	.p2align	2
__ZN4main12instructions14RetInstruction3new17hba68c35196258340E:
	.cfi_startproc
	ldr	q0, [x0]
	str	q0, [x8]
	ret
	.cfi_endproc

	.p2align	2
__ZN4main12instructions14RetInstruction7execute17ha251383e91ffdd6aE:
	.cfi_startproc
	sub	sp, sp, #64
	.cfi_def_cfa_offset 64
	stp	x29, x30, [sp, #48]
	add	x29, sp, #48
	.cfi_def_cfa w29, 16
	.cfi_offset w30, -8
	.cfi_offset w29, -16
	str	x3, [sp, #8]
	bl	__ZN4main7vm_util3Src7get_val17h89eb451d16de3c73E
	mov	x8, x0
	ldr	x0, [sp, #8]
	ldr	q0, [x8]
	str	q0, [sp, #16]
	bl	__ZN4main7vm_util5Stack16read_stack_frame17h9315cae95e177d90E
	mov	x1, x0
	ldr	x0, [sp, #8]
	bl	__ZN4main7vm_util5Stack8truncate17h0d9f5788a7945e3eE
	ldr	x0, [sp, #8]
	bl	__ZN4main7vm_util5Stack15pop_stack_frame17h14e601ae09d004d1E
	ldr	x0, [sp, #8]
	ldr	q0, [sp, #16]
	sub	x1, x29, #16
	stur	q0, [x29, #-16]
	bl	__ZN4main7vm_util5Stack4push17hf8474d57900a6c0fE
	.cfi_def_cfa wsp, 64
	ldp	x29, x30, [sp, #48]
	add	sp, sp, #64
	.cfi_def_cfa_offset 0
	.cfi_restore w30
	.cfi_restore w29
	ret
	.cfi_endproc

	.p2align	2
__ZN4main12instructions20PushStackInstruction3new17hfe7e45e50564c2e7E:
	.cfi_startproc
	ldr	q0, [x0]
	str	q0, [x8]
	ret
	.cfi_endproc

	.p2align	2
__ZN4main12instructions20PushStackInstruction7execute17hbbff7cce66887ca7E:
	.cfi_startproc
	sub	sp, sp, #64
	.cfi_def_cfa_offset 64
	stp	x29, x30, [sp, #48]
	add	x29, sp, #48
	.cfi_def_cfa w29, 16
	.cfi_offset w30, -8
	.cfi_offset w29, -16
	str	x3, [sp]
	str	x4, [sp, #8]
	bl	__ZN4main7vm_util3Src7get_val17h89eb451d16de3c73E
	mov	x8, x0
	ldr	x0, [sp]
	ldr	q0, [x8]
	str	q0, [sp, #16]
	ldr	q0, [sp, #16]
	sub	x1, x29, #16
	stur	q0, [x29, #-16]
	bl	__ZN4main7vm_util5Stack4push17hf8474d57900a6c0fE
	ldr	x0, [sp, #8]
	bl	__ZN4main9Registers6inc_ip17hb67aa2a2bee90fdaE
	.cfi_def_cfa wsp, 64
	ldp	x29, x30, [sp, #48]
	add	sp, sp, #64
	.cfi_def_cfa_offset 0
	.cfi_restore w30
	.cfi_restore w29
	ret
	.cfi_endproc

	.p2align	2
__ZN4main12instructions23PushInstrPtrInstruction3new17h4d74fd4ece850b62E:
	.cfi_startproc
	sub	sp, sp, #16
	.cfi_def_cfa_offset 16
	str	x0, [sp, #8]
	ldr	x0, [sp, #8]
	add	sp, sp, #16
	.cfi_def_cfa_offset 0
	ret
	.cfi_endproc

	.p2align	2
__ZN4main12instructions23PushInstrPtrInstruction7execute17hb16ecd66cf1d65f2E:
	.cfi_startproc
	stp	x29, x30, [sp, #-16]!
	.cfi_def_cfa_offset 16
	mov	x29, sp
	.cfi_def_cfa w29, 16
	.cfi_offset w30, -8
	.cfi_offset w29, -16
	mov	x0, x4
	bl	__ZN4main9Registers6inc_ip17hb67aa2a2bee90fdaE
	.cfi_def_cfa wsp, 16
	ldp	x29, x30, [sp], #16
	.cfi_def_cfa_offset 0
	.cfi_restore w30
	.cfi_restore w29
	ret
	.cfi_endproc

	.p2align	2
__ZN4main12instructions13InstructionV23new17hd6541c5f8eab9999E:
	.cfi_startproc
	sub	sp, sp, #32
	.cfi_def_cfa_offset 32
	stp	x29, x30, [sp, #16]
	add	x29, sp, #16
	.cfi_def_cfa w29, 16
	.cfi_offset w30, -8
	.cfi_offset w29, -16
	str	x8, [sp]
	mov	x8, x0
	ldr	x0, [sp]
	sturb	w8, [x29, #-1]
	ldurb	w8, [x29, #-1]
	strb	w8, [x0, #40]
	mov	w8, #40
	mov	x2, x8
	bl	_memcpy
	.cfi_def_cfa wsp, 32
	ldp	x29, x30, [sp, #16]
	add	sp, sp, #32
	.cfi_def_cfa_offset 0
	.cfi_restore w30
	.cfi_restore w29
	ret
	.cfi_endproc

	.p2align	2
__ZN66_$LT$main..instructions..InstrData$u20$as$u20$core..fmt..Debug$GT$3fmt17hdb4ff904094b1a9aE:
	.cfi_startproc
	sub	sp, sp, #80
	.cfi_def_cfa_offset 80
	stp	x29, x30, [sp, #64]
	add	x29, sp, #64
	.cfi_def_cfa w29, 16
	.cfi_offset w30, -8
	.cfi_offset w29, -16
	str	x1, [sp]
	add	x8, sp, #16
	str	x8, [sp, #8]
	adrp	x0, l___unnamed_43@PAGE
	add	x0, x0, l___unnamed_43@PAGEOFF
	mov	w9, #1
	mov	x1, x9
	bl	__ZN4core3fmt9Arguments9new_const17hb03f19c839408508E
	ldr	x0, [sp]
	ldr	x1, [sp, #8]
	bl	__ZN4core3fmt9Formatter9write_fmt17h153b963f3ea3120aE
	.cfi_def_cfa wsp, 80
	ldp	x29, x30, [sp, #64]
	add	sp, sp, #80
	.cfi_def_cfa_offset 0
	.cfi_restore w30
	.cfi_restore w29
	ret
	.cfi_endproc

	.p2align	2
__ZN4main12instructions9InstrData8new_halt17h11111db872084eb7E:
	.cfi_startproc
	ret
	.cfi_endproc

	.p2align	2
__ZN4main12instructions9InstrData26new_binary_reg_stack_const17h2cc680dacedbc3dfE:
	.cfi_startproc
	ldr	q0, [x0]
	str	q0, [x8]
	ldr	q0, [x0, #16]
	str	q0, [x8, #16]
	ret
	.cfi_endproc

	.p2align	2
__ZN4main12instructions9InstrData26new_binary_reg_stack_stack17hb190ab858b21569dE:
	.cfi_startproc
	sub	sp, sp, #32
	.cfi_def_cfa_offset 32
	stp	x29, x30, [sp, #16]
	add	x29, sp, #16
	.cfi_def_cfa w29, 16
	.cfi_offset w30, -8
	.cfi_offset w29, -16
	str	x8, [sp, #8]
	mov	x1, x0
	ldr	x0, [sp, #8]
	mov	w8, #40
	mov	x2, x8
	bl	_memcpy
	.cfi_def_cfa wsp, 32
	ldp	x29, x30, [sp, #16]
	add	sp, sp, #32
	.cfi_def_cfa_offset 0
	.cfi_restore w30
	.cfi_restore w29
	ret
	.cfi_endproc

	.p2align	2
__ZN4main12instructions9InstrData8new_call17h9c0e33e6f3a1afa3E:
	.cfi_startproc
	ldr	q0, [x0]
	str	q0, [x8]
	ldr	q0, [x0, #16]
	str	q0, [x8, #16]
	ret
	.cfi_endproc

	.p2align	2
__ZN4main12instructions9InstrData13new_ret_stack17hdf0883ccfb057066E:
	.cfi_startproc
	str	x0, [x8]
	strb	w1, [x8, #8]
	ret
	.cfi_endproc

	.p2align	2
__ZN4main12instructions9InstrData11new_ret_reg17h6c59eedeb1f85c16E:
	.cfi_startproc
	strb	w0, [x8]
	ret
	.cfi_endproc

	.p2align	2
__ZN4main12instructions9InstrData18new_push_stack_reg17h82a672bcbeea080eE:
	.cfi_startproc
	strb	w0, [x8]
	ret
	.cfi_endproc

	.p2align	2
__ZN4main12instructions9InstrData20new_push_stack_const17hd40771eac948cb2fE:
	.cfi_startproc
	str	x0, [x8]
	ret
	.cfi_endproc

	.p2align	2
__ZN4main12instructions9InstrData11new_cmp_jmp17hd109254bc2ebee4cE:
	.cfi_startproc
	sub	sp, sp, #32
	.cfi_def_cfa_offset 32
	stp	x29, x30, [sp, #16]
	add	x29, sp, #16
	.cfi_def_cfa w29, 16
	.cfi_offset w30, -8
	.cfi_offset w29, -16
	str	x8, [sp, #8]
	mov	x1, x0
	ldr	x0, [sp, #8]
	mov	w8, #40
	mov	x2, x8
	bl	_memcpy
	.cfi_def_cfa wsp, 32
	ldp	x29, x30, [sp, #16]
	add	sp, sp, #32
	.cfi_def_cfa_offset 0
	.cfi_restore w30
	.cfi_restore w29
	ret
	.cfi_endproc

	.p2align	2
__ZN4main12instructions9InstrData11new_push_fn17h4fab9dbee3b9b2a5E:
	.cfi_startproc
	str	x0, [x8]
	ret
	.cfi_endproc

	.p2align	2
__ZN4main7vm_util8ConstPtr3new17h473b7f254df66ad8E:
	.cfi_startproc
	sub	sp, sp, #16
	.cfi_def_cfa_offset 16
	str	x0, [sp, #8]
	ldr	x0, [sp, #8]
	add	sp, sp, #16
	.cfi_def_cfa_offset 0
	ret
	.cfi_endproc

	.p2align	2
__ZN4main7vm_util8StackPtr3new17h8e5f5f64b99665f5E:
	.cfi_startproc
	sub	sp, sp, #16
	.cfi_def_cfa_offset 16
	str	x0, [sp]
	strb	w1, [sp, #8]
	ldr	x0, [sp]
	ldrb	w8, [sp, #8]
	and	w1, w8, #0x1
	add	sp, sp, #16
	.cfi_def_cfa_offset 0
	ret
	.cfi_endproc

	.p2align	2
__ZN4main7vm_util8StackPtr7get_idx17h0e012aab37abcf33E:
	.cfi_startproc
	ldr	x0, [x0]
	ret
	.cfi_endproc

	.p2align	2
__ZN4main7vm_util8StackPtr15get_is_relative17h73bb4cab09f70a0aE:
	.cfi_startproc
	ldrb	w8, [x0, #8]
	and	w0, w8, #0x1
	ret
	.cfi_endproc

	.p2align	2
__ZN4main7vm_util3Src7get_val17h89eb451d16de3c73E:
	.cfi_startproc
	sub	sp, sp, #80
	.cfi_def_cfa_offset 80
	stp	x29, x30, [sp, #64]
	add	x29, sp, #64
	.cfi_def_cfa w29, 16
	.cfi_offset w30, -8
	.cfi_offset w29, -16
	str	x0, [sp, #8]
	str	x1, [sp, #16]
	str	x2, [sp, #24]
	str	x3, [sp, #32]
	stur	x4, [x29, #-24]
	ldrb	w8, [x0, #8]
	subs	w9, w8, #2
	mov	x8, x9
	and	x8, x8, #0xff
	and	w10, w9, #0xff
	mov	w9, #2
	subs	w10, w10, #1
	csel	x8, x8, x9, ls
	stur	x8, [x29, #-16]
	cbz	x8, LBB243_4
	b	LBB243_1
LBB243_1:
	ldur	x8, [x29, #-16]
	subs	x8, x8, #1
	b.eq	LBB243_5
	b	LBB243_2
LBB243_2:
	b	LBB243_6
LBB243_4:
	ldur	x0, [x29, #-24]
	ldr	x8, [sp, #8]
	ldrb	w1, [x8]
	bl	__ZN4main9Registers7get_reg17h8a9834799835db69E
	ldr	x1, [sp, #16]
	ldr	x2, [sp, #24]
	bl	__ZN4main7vm_util13RegisterValue7get_val17h13f06b83c0370ad1E
	stur	x0, [x29, #-8]
	b	LBB243_7
LBB243_5:
	ldr	x1, [sp, #24]
	ldr	x0, [sp, #16]
	ldr	x8, [sp, #8]
	ldr	x2, [x8]
	bl	__ZN4core5slice29_$LT$impl$u20$$u5b$T$u5d$$GT$13get_unchecked17hc2b02be7afc34c85E
	stur	x0, [x29, #-8]
	b	LBB243_7
LBB243_6:
	ldr	x1, [sp, #8]
	ldr	x0, [sp, #32]
	bl	__ZN4main7vm_util5Stack3get17h6f97994b4e633039E
	bl	__ZN4main7vm_util10StackValue10unwrap_val17h6371c624edab9ae2E
	stur	x0, [x29, #-8]
	b	LBB243_7
LBB243_7:
	ldur	x0, [x29, #-8]
	.cfi_def_cfa wsp, 80
	ldp	x29, x30, [sp, #64]
	add	sp, sp, #80
	.cfi_def_cfa_offset 0
	.cfi_restore w30
	.cfi_restore w29
	ret
	.cfi_endproc

	.p2align	2
__ZN4main7vm_util5Value3add17hc9b1ea27128f8b31E:
	.cfi_startproc
	sub	sp, sp, #192
	.cfi_def_cfa_offset 192
	stp	x29, x30, [sp, #176]
	add	x29, sp, #176
	.cfi_def_cfa w29, 16
	.cfi_offset w30, -8
	.cfi_offset w29, -16
	.cfi_remember_state
	str	x8, [sp, #16]
	str	x0, [sp, #32]
	str	x1, [sp, #40]
	ldr	x9, [sp, #32]
	ldr	x8, [sp, #40]
	str	x9, [sp, #48]
	str	x8, [sp, #56]
	ldr	x8, [sp, #48]
	ldrb	w8, [x8]
	str	x8, [sp, #24]
	cbz	x8, LBB244_4
	b	LBB244_1
LBB244_1:
	ldr	x8, [sp, #24]
	subs	x8, x8, #1
	b.eq	LBB244_5
	b	LBB244_2
LBB244_2:
	b	LBB244_6
LBB244_4:
	ldr	x8, [sp, #56]
	ldrb	w8, [x8]
	cbz	x8, LBB244_7
	b	LBB244_6
LBB244_5:
	ldr	x8, [sp, #56]
	ldrb	w8, [x8]
	subs	x8, x8, #1
	b.eq	LBB244_9
	b	LBB244_6
LBB244_6:
	add	x8, sp, #32
	stur	x8, [x29, #-16]
	adrp	x8, __ZN42_$LT$$RF$T$u20$as$u20$core..fmt..Debug$GT$3fmt17h33c2319c71cf6599E@PAGE
	add	x8, x8, __ZN42_$LT$$RF$T$u20$as$u20$core..fmt..Debug$GT$3fmt17h33c2319c71cf6599E@PAGEOFF
	mov	x9, x8
	stur	x9, [x29, #-8]
	ldur	x11, [x29, #-16]
	ldur	x10, [x29, #-8]
	add	x9, sp, #40
	stur	x9, [x29, #-32]
	stur	x8, [x29, #-24]
	ldur	x9, [x29, #-32]
	ldur	x8, [x29, #-24]
	sub	x2, x29, #64
	stur	x11, [x29, #-64]
	stur	x10, [x29, #-56]
	stur	x9, [x29, #-48]
	stur	x8, [x29, #-40]
	add	x8, sp, #64
	str	x8, [sp, #8]
	adrp	x0, l___unnamed_44@PAGE
	add	x0, x0, l___unnamed_44@PAGEOFF
	mov	w9, #2
	mov	x3, x9
	mov	x1, x3
	bl	__ZN4core3fmt9Arguments6new_v117h619f9bb2db3983b4E
	ldr	x0, [sp, #8]
	adrp	x1, l___unnamed_45@PAGE
	add	x1, x1, l___unnamed_45@PAGEOFF
	bl	__ZN4core9panicking9panic_fmt17h98bbf7bdf4994454E
LBB244_7:
	ldr	x8, [sp, #48]
	add	x0, x8, #4
	ldr	x8, [sp, #56]
	add	x1, x8, #4
	adrp	x2, l___unnamed_46@PAGE
	add	x2, x2, l___unnamed_46@PAGEOFF
	bl	__ZN64_$LT$$RF$i32$u20$as$u20$core..ops..arith..Add$LT$$RF$i32$GT$$GT$3add17haffeed548419eb45E
	ldr	x8, [sp, #16]
	str	w0, [x8, #4]
	strb	wzr, [x8]
	b	LBB244_8
LBB244_8:
	.cfi_def_cfa wsp, 192
	ldp	x29, x30, [sp, #176]
	add	sp, sp, #192
	.cfi_def_cfa_offset 0
	.cfi_restore w30
	.cfi_restore w29
	ret
LBB244_9:
	.cfi_restore_state
	ldr	x8, [sp, #48]
	add	x0, x8, #8
	ldr	x8, [sp, #56]
	add	x1, x8, #8
	adrp	x2, l___unnamed_47@PAGE
	add	x2, x2, l___unnamed_47@PAGEOFF
	bl	__ZN64_$LT$$RF$i64$u20$as$u20$core..ops..arith..Add$LT$$RF$i64$GT$$GT$3add17he18c087e1fb0253bE
	ldr	x9, [sp, #16]
	str	x0, [x9, #8]
	mov	w8, #1
	strb	w8, [x9]
	b	LBB244_8
	.cfi_endproc

	.p2align	2
__ZN4main7vm_util5Value3sub17hd68d6234769dfb5dE:
	.cfi_startproc
	sub	sp, sp, #192
	.cfi_def_cfa_offset 192
	stp	x29, x30, [sp, #176]
	add	x29, sp, #176
	.cfi_def_cfa w29, 16
	.cfi_offset w30, -8
	.cfi_offset w29, -16
	.cfi_remember_state
	str	x8, [sp, #16]
	str	x0, [sp, #32]
	str	x1, [sp, #40]
	ldr	x9, [sp, #32]
	ldr	x8, [sp, #40]
	str	x9, [sp, #48]
	str	x8, [sp, #56]
	ldr	x8, [sp, #48]
	ldrb	w8, [x8]
	str	x8, [sp, #24]
	cbz	x8, LBB245_4
	b	LBB245_1
LBB245_1:
	ldr	x8, [sp, #24]
	subs	x8, x8, #1
	b.eq	LBB245_5
	b	LBB245_2
LBB245_2:
	b	LBB245_6
LBB245_4:
	ldr	x8, [sp, #56]
	ldrb	w8, [x8]
	cbz	x8, LBB245_7
	b	LBB245_6
LBB245_5:
	ldr	x8, [sp, #56]
	ldrb	w8, [x8]
	subs	x8, x8, #1
	b.eq	LBB245_9
	b	LBB245_6
LBB245_6:
	add	x8, sp, #32
	stur	x8, [x29, #-16]
	adrp	x8, __ZN42_$LT$$RF$T$u20$as$u20$core..fmt..Debug$GT$3fmt17h33c2319c71cf6599E@PAGE
	add	x8, x8, __ZN42_$LT$$RF$T$u20$as$u20$core..fmt..Debug$GT$3fmt17h33c2319c71cf6599E@PAGEOFF
	mov	x9, x8
	stur	x9, [x29, #-8]
	ldur	x11, [x29, #-16]
	ldur	x10, [x29, #-8]
	add	x9, sp, #40
	stur	x9, [x29, #-32]
	stur	x8, [x29, #-24]
	ldur	x9, [x29, #-32]
	ldur	x8, [x29, #-24]
	sub	x2, x29, #64
	stur	x11, [x29, #-64]
	stur	x10, [x29, #-56]
	stur	x9, [x29, #-48]
	stur	x8, [x29, #-40]
	add	x8, sp, #64
	str	x8, [sp, #8]
	adrp	x0, l___unnamed_48@PAGE
	add	x0, x0, l___unnamed_48@PAGEOFF
	mov	w9, #2
	mov	x3, x9
	mov	x1, x3
	bl	__ZN4core3fmt9Arguments6new_v117h619f9bb2db3983b4E
	ldr	x0, [sp, #8]
	adrp	x1, l___unnamed_49@PAGE
	add	x1, x1, l___unnamed_49@PAGEOFF
	bl	__ZN4core9panicking9panic_fmt17h98bbf7bdf4994454E
LBB245_7:
	ldr	x8, [sp, #48]
	add	x0, x8, #4
	ldr	x8, [sp, #56]
	add	x1, x8, #4
	adrp	x2, l___unnamed_50@PAGE
	add	x2, x2, l___unnamed_50@PAGEOFF
	bl	__ZN64_$LT$$RF$i32$u20$as$u20$core..ops..arith..Sub$LT$$RF$i32$GT$$GT$3sub17h94283ebb94365b9cE
	ldr	x8, [sp, #16]
	str	w0, [x8, #4]
	strb	wzr, [x8]
	b	LBB245_8
LBB245_8:
	.cfi_def_cfa wsp, 192
	ldp	x29, x30, [sp, #176]
	add	sp, sp, #192
	.cfi_def_cfa_offset 0
	.cfi_restore w30
	.cfi_restore w29
	ret
LBB245_9:
	.cfi_restore_state
	ldr	x8, [sp, #48]
	add	x0, x8, #8
	ldr	x8, [sp, #56]
	add	x1, x8, #8
	adrp	x2, l___unnamed_51@PAGE
	add	x2, x2, l___unnamed_51@PAGEOFF
	bl	__ZN64_$LT$$RF$i64$u20$as$u20$core..ops..arith..Sub$LT$$RF$i64$GT$$GT$3sub17h2d6f0cbc91a90a8fE
	ldr	x9, [sp, #16]
	str	x0, [x9, #8]
	mov	w8, #1
	strb	w8, [x9]
	b	LBB245_8
	.cfi_endproc

	.p2align	2
__ZN4main7vm_util5Value3mul17he602582e17797115E:
	.cfi_startproc
	sub	sp, sp, #192
	.cfi_def_cfa_offset 192
	stp	x29, x30, [sp, #176]
	add	x29, sp, #176
	.cfi_def_cfa w29, 16
	.cfi_offset w30, -8
	.cfi_offset w29, -16
	.cfi_remember_state
	str	x8, [sp, #16]
	str	x0, [sp, #32]
	str	x1, [sp, #40]
	ldr	x9, [sp, #32]
	ldr	x8, [sp, #40]
	str	x9, [sp, #48]
	str	x8, [sp, #56]
	ldr	x8, [sp, #48]
	ldrb	w8, [x8]
	str	x8, [sp, #24]
	cbz	x8, LBB246_4
	b	LBB246_1
LBB246_1:
	ldr	x8, [sp, #24]
	subs	x8, x8, #1
	b.eq	LBB246_5
	b	LBB246_2
LBB246_2:
	b	LBB246_6
LBB246_4:
	ldr	x8, [sp, #56]
	ldrb	w8, [x8]
	cbz	x8, LBB246_7
	b	LBB246_6
LBB246_5:
	ldr	x8, [sp, #56]
	ldrb	w8, [x8]
	subs	x8, x8, #1
	b.eq	LBB246_9
	b	LBB246_6
LBB246_6:
	add	x8, sp, #32
	stur	x8, [x29, #-16]
	adrp	x8, __ZN42_$LT$$RF$T$u20$as$u20$core..fmt..Debug$GT$3fmt17h33c2319c71cf6599E@PAGE
	add	x8, x8, __ZN42_$LT$$RF$T$u20$as$u20$core..fmt..Debug$GT$3fmt17h33c2319c71cf6599E@PAGEOFF
	mov	x9, x8
	stur	x9, [x29, #-8]
	ldur	x11, [x29, #-16]
	ldur	x10, [x29, #-8]
	add	x9, sp, #40
	stur	x9, [x29, #-32]
	stur	x8, [x29, #-24]
	ldur	x9, [x29, #-32]
	ldur	x8, [x29, #-24]
	sub	x2, x29, #64
	stur	x11, [x29, #-64]
	stur	x10, [x29, #-56]
	stur	x9, [x29, #-48]
	stur	x8, [x29, #-40]
	add	x8, sp, #64
	str	x8, [sp, #8]
	adrp	x0, l___unnamed_52@PAGE
	add	x0, x0, l___unnamed_52@PAGEOFF
	mov	w9, #2
	mov	x3, x9
	mov	x1, x3
	bl	__ZN4core3fmt9Arguments6new_v117h619f9bb2db3983b4E
	ldr	x0, [sp, #8]
	adrp	x1, l___unnamed_53@PAGE
	add	x1, x1, l___unnamed_53@PAGEOFF
	bl	__ZN4core9panicking9panic_fmt17h98bbf7bdf4994454E
LBB246_7:
	ldr	x8, [sp, #48]
	add	x0, x8, #4
	ldr	x8, [sp, #56]
	add	x1, x8, #4
	adrp	x2, l___unnamed_54@PAGE
	add	x2, x2, l___unnamed_54@PAGEOFF
	bl	__ZN64_$LT$$RF$i32$u20$as$u20$core..ops..arith..Mul$LT$$RF$i32$GT$$GT$3mul17h09851e64bde045bcE
	ldr	x8, [sp, #16]
	str	w0, [x8, #4]
	strb	wzr, [x8]
	b	LBB246_8
LBB246_8:
	.cfi_def_cfa wsp, 192
	ldp	x29, x30, [sp, #176]
	add	sp, sp, #192
	.cfi_def_cfa_offset 0
	.cfi_restore w30
	.cfi_restore w29
	ret
LBB246_9:
	.cfi_restore_state
	ldr	x8, [sp, #48]
	add	x0, x8, #8
	ldr	x8, [sp, #56]
	add	x1, x8, #8
	adrp	x2, l___unnamed_55@PAGE
	add	x2, x2, l___unnamed_55@PAGEOFF
	bl	__ZN64_$LT$$RF$i64$u20$as$u20$core..ops..arith..Mul$LT$$RF$i64$GT$$GT$3mul17h15a4e94dd23dc741E
	ldr	x9, [sp, #16]
	str	x0, [x9, #8]
	mov	w8, #1
	strb	w8, [x9]
	b	LBB246_8
	.cfi_endproc

	.p2align	2
__ZN4main7vm_util5Value3div17he68c9a11be5f0467E:
	.cfi_startproc
	sub	sp, sp, #192
	.cfi_def_cfa_offset 192
	stp	x29, x30, [sp, #176]
	add	x29, sp, #176
	.cfi_def_cfa w29, 16
	.cfi_offset w30, -8
	.cfi_offset w29, -16
	.cfi_remember_state
	str	x8, [sp, #16]
	str	x0, [sp, #32]
	str	x1, [sp, #40]
	ldr	x9, [sp, #32]
	ldr	x8, [sp, #40]
	str	x9, [sp, #48]
	str	x8, [sp, #56]
	ldr	x8, [sp, #48]
	ldrb	w8, [x8]
	str	x8, [sp, #24]
	cbz	x8, LBB247_4
	b	LBB247_1
LBB247_1:
	ldr	x8, [sp, #24]
	subs	x8, x8, #1
	b.eq	LBB247_5
	b	LBB247_2
LBB247_2:
	b	LBB247_6
LBB247_4:
	ldr	x8, [sp, #56]
	ldrb	w8, [x8]
	cbz	x8, LBB247_7
	b	LBB247_6
LBB247_5:
	ldr	x8, [sp, #56]
	ldrb	w8, [x8]
	subs	x8, x8, #1
	b.eq	LBB247_9
	b	LBB247_6
LBB247_6:
	add	x8, sp, #32
	stur	x8, [x29, #-16]
	adrp	x8, __ZN42_$LT$$RF$T$u20$as$u20$core..fmt..Debug$GT$3fmt17h33c2319c71cf6599E@PAGE
	add	x8, x8, __ZN42_$LT$$RF$T$u20$as$u20$core..fmt..Debug$GT$3fmt17h33c2319c71cf6599E@PAGEOFF
	mov	x9, x8
	stur	x9, [x29, #-8]
	ldur	x11, [x29, #-16]
	ldur	x10, [x29, #-8]
	add	x9, sp, #40
	stur	x9, [x29, #-32]
	stur	x8, [x29, #-24]
	ldur	x9, [x29, #-32]
	ldur	x8, [x29, #-24]
	sub	x2, x29, #64
	stur	x11, [x29, #-64]
	stur	x10, [x29, #-56]
	stur	x9, [x29, #-48]
	stur	x8, [x29, #-40]
	add	x8, sp, #64
	str	x8, [sp, #8]
	adrp	x0, l___unnamed_56@PAGE
	add	x0, x0, l___unnamed_56@PAGEOFF
	mov	w9, #2
	mov	x3, x9
	mov	x1, x3
	bl	__ZN4core3fmt9Arguments6new_v117h619f9bb2db3983b4E
	ldr	x0, [sp, #8]
	adrp	x1, l___unnamed_57@PAGE
	add	x1, x1, l___unnamed_57@PAGEOFF
	bl	__ZN4core9panicking9panic_fmt17h98bbf7bdf4994454E
LBB247_7:
	ldr	x8, [sp, #48]
	add	x0, x8, #4
	ldr	x8, [sp, #56]
	add	x1, x8, #4
	adrp	x2, l___unnamed_58@PAGE
	add	x2, x2, l___unnamed_58@PAGEOFF
	bl	__ZN64_$LT$$RF$i32$u20$as$u20$core..ops..arith..Div$LT$$RF$i32$GT$$GT$3div17hd29fdd77f45d4c6cE
	ldr	x8, [sp, #16]
	str	w0, [x8, #4]
	strb	wzr, [x8]
	b	LBB247_8
LBB247_8:
	.cfi_def_cfa wsp, 192
	ldp	x29, x30, [sp, #176]
	add	sp, sp, #192
	.cfi_def_cfa_offset 0
	.cfi_restore w30
	.cfi_restore w29
	ret
LBB247_9:
	.cfi_restore_state
	ldr	x8, [sp, #48]
	add	x0, x8, #8
	ldr	x8, [sp, #56]
	add	x1, x8, #8
	adrp	x2, l___unnamed_59@PAGE
	add	x2, x2, l___unnamed_59@PAGEOFF
	bl	__ZN64_$LT$$RF$i64$u20$as$u20$core..ops..arith..Div$LT$$RF$i64$GT$$GT$3div17ha0b42afe14a389baE
	ldr	x9, [sp, #16]
	str	x0, [x9, #8]
	mov	w8, #1
	strb	w8, [x9]
	b	LBB247_8
	.cfi_endproc

	.p2align	2
__ZN4main7vm_util5Value5cmp_l17hf0d8db80eb6e44ccE:
	.cfi_startproc
	sub	sp, sp, #224
	.cfi_def_cfa_offset 224
	stp	x29, x30, [sp, #208]
	add	x29, sp, #208
	.cfi_def_cfa w29, 16
	.cfi_offset w30, -8
	.cfi_offset w29, -16
	.cfi_remember_state
	str	x0, [sp, #24]
	str	x1, [sp, #32]
	ldr	x9, [sp, #24]
	ldr	x8, [sp, #32]
	str	x9, [sp, #48]
	str	x8, [sp, #56]
	ldr	x8, [sp, #48]
	ldrb	w8, [x8]
	str	x8, [sp, #16]
	cbz	x8, LBB248_4
	b	LBB248_1
LBB248_1:
	ldr	x8, [sp, #16]
	subs	x8, x8, #1
	b.eq	LBB248_5
	b	LBB248_2
LBB248_2:
	b	LBB248_6
LBB248_4:
	ldr	x8, [sp, #56]
	ldrb	w8, [x8]
	cbz	x8, LBB248_7
	b	LBB248_6
LBB248_5:
	ldr	x8, [sp, #56]
	ldrb	w8, [x8]
	subs	x8, x8, #1
	b.eq	LBB248_9
	b	LBB248_6
LBB248_6:
	add	x8, sp, #24
	stur	x8, [x29, #-16]
	adrp	x8, __ZN42_$LT$$RF$T$u20$as$u20$core..fmt..Debug$GT$3fmt17h33c2319c71cf6599E@PAGE
	add	x8, x8, __ZN42_$LT$$RF$T$u20$as$u20$core..fmt..Debug$GT$3fmt17h33c2319c71cf6599E@PAGEOFF
	mov	x9, x8
	stur	x9, [x29, #-8]
	ldur	x11, [x29, #-16]
	ldur	x10, [x29, #-8]
	add	x9, sp, #32
	stur	x9, [x29, #-32]
	stur	x8, [x29, #-24]
	ldur	x9, [x29, #-32]
	ldur	x8, [x29, #-24]
	sub	x2, x29, #64
	stur	x11, [x29, #-64]
	stur	x10, [x29, #-56]
	stur	x9, [x29, #-48]
	stur	x8, [x29, #-40]
	add	x8, sp, #96
	str	x8, [sp, #8]
	adrp	x0, l___unnamed_60@PAGE
	add	x0, x0, l___unnamed_60@PAGEOFF
	mov	w9, #2
	mov	x3, x9
	mov	x1, x3
	bl	__ZN4core3fmt9Arguments6new_v117h619f9bb2db3983b4E
	ldr	x0, [sp, #8]
	adrp	x1, l___unnamed_61@PAGE
	add	x1, x1, l___unnamed_61@PAGEOFF
	bl	__ZN4core9panicking9panic_fmt17h98bbf7bdf4994454E
LBB248_7:
	ldr	x8, [sp, #48]
	add	x8, x8, #4
	add	x0, sp, #64
	str	x8, [sp, #64]
	ldr	x8, [sp, #56]
	add	x8, x8, #4
	add	x1, sp, #72
	str	x8, [sp, #72]
	bl	__ZN4core3cmp5impls70_$LT$impl$u20$core..cmp..PartialOrd$LT$$RF$B$GT$$u20$for$u20$$RF$A$GT$2lt17h9bf4e6088cfa648cE
	strb	w0, [sp, #47]
	b	LBB248_8
LBB248_8:
	ldrb	w8, [sp, #47]
	and	w0, w8, #0x1
	.cfi_def_cfa wsp, 224
	ldp	x29, x30, [sp, #208]
	add	sp, sp, #224
	.cfi_def_cfa_offset 0
	.cfi_restore w30
	.cfi_restore w29
	ret
LBB248_9:
	.cfi_restore_state
	ldr	x8, [sp, #48]
	add	x8, x8, #8
	add	x0, sp, #80
	str	x8, [sp, #80]
	ldr	x8, [sp, #56]
	add	x8, x8, #8
	add	x1, sp, #88
	str	x8, [sp, #88]
	bl	__ZN4core3cmp5impls70_$LT$impl$u20$core..cmp..PartialOrd$LT$$RF$B$GT$$u20$for$u20$$RF$A$GT$2lt17h888854cfd1fe6f76E
	strb	w0, [sp, #47]
	b	LBB248_8
	.cfi_endproc

	.p2align	2
__ZN4main7vm_util5Stack3new17h2ffa87df64a54c0aE:
Lfunc_begin23:
	.cfi_startproc
	.cfi_personality 155, _rust_eh_personality
	.cfi_lsda 16, Lexception23
	sub	sp, sp, #96
	.cfi_def_cfa_offset 96
	stp	x29, x30, [sp, #80]
	add	x29, sp, #80
	.cfi_def_cfa w29, 16
	.cfi_offset w30, -8
	.cfi_offset w29, -16
	.cfi_remember_state
	str	x8, [sp, #8]
	add	x8, sp, #16
	bl	__ZN5alloc3vec12Vec$LT$T$GT$3new17h9a1b419d29aacfb7E
Ltmp142:
	add	x8, sp, #40
	bl	__ZN5alloc3vec12Vec$LT$T$GT$3new17ha107aee19cd17e30E
Ltmp143:
	b	LBB249_3
LBB249_1:
Ltmp145:
	add	x0, sp, #16
	bl	__ZN4core3ptr69drop_in_place$LT$alloc..vec..Vec$LT$main..vm_util..StackValue$GT$$GT$17hc496bbea7a6bec5eE
Ltmp146:
	b	LBB249_5
LBB249_2:
Ltmp144:
	stur	x0, [x29, #-16]
	mov	x8, x1
	stur	w8, [x29, #-8]
	b	LBB249_1
LBB249_3:
	ldr	x9, [sp, #8]
	ldr	q0, [sp, #16]
	str	q0, [x9]
	ldr	x8, [sp, #32]
	str	x8, [x9, #16]
	ldur	q0, [sp, #40]
	stur	q0, [x9, #24]
	ldr	x8, [sp, #56]
	str	x8, [x9, #40]
	.cfi_def_cfa wsp, 96
	ldp	x29, x30, [sp, #80]
	add	sp, sp, #96
	.cfi_def_cfa_offset 0
	.cfi_restore w30
	.cfi_restore w29
	ret
LBB249_4:
	.cfi_restore_state
Ltmp147:
	bl	__ZN4core9panicking16panic_in_cleanup17he9ef3195c438193cE
LBB249_5:
	ldur	x0, [x29, #-16]
	bl	__Unwind_Resume
Lfunc_end23:
	.cfi_endproc
	.section	__TEXT,__gcc_except_tab
	.p2align	2, 0x0
GCC_except_table249:
Lexception23:
	.byte	255
	.byte	155
	.uleb128 Lttbase14-Lttbaseref14
Lttbaseref14:
	.byte	1
	.uleb128 Lcst_end23-Lcst_begin23
Lcst_begin23:
	.uleb128 Lfunc_begin23-Lfunc_begin23
	.uleb128 Ltmp142-Lfunc_begin23
	.byte	0
	.byte	0
	.uleb128 Ltmp142-Lfunc_begin23
	.uleb128 Ltmp143-Ltmp142
	.uleb128 Ltmp144-Lfunc_begin23
	.byte	0
	.uleb128 Ltmp145-Lfunc_begin23
	.uleb128 Ltmp146-Ltmp145
	.uleb128 Ltmp147-Lfunc_begin23
	.byte	1
	.uleb128 Ltmp146-Lfunc_begin23
	.uleb128 Lfunc_end23-Ltmp146
	.byte	0
	.byte	0
Lcst_end23:
	.byte	127
	.byte	0
	.p2align	2, 0x0
Lttbase14:
	.byte	0
	.p2align	2, 0x0

	.section	__TEXT,__text,regular,pure_instructions
	.p2align	2
__ZN4main7vm_util5Stack3get17h6f97994b4e633039E:
	.cfi_startproc
	sub	sp, sp, #96
	.cfi_def_cfa_offset 96
	stp	x29, x30, [sp, #80]
	add	x29, sp, #80
	.cfi_def_cfa w29, 16
	.cfi_offset w30, -8
	.cfi_offset w29, -16
	.cfi_remember_state
	stur	x0, [x29, #-24]
	mov	x0, x1
	stur	x0, [x29, #-16]
	bl	__ZN4main7vm_util8StackPtr15get_is_relative17h73bb4cab09f70a0aE
	tbnz	w0, #0, LBB250_2
	b	LBB250_1
LBB250_1:
	ldur	x0, [x29, #-24]
	bl	__ZN72_$LT$alloc..vec..Vec$LT$T$C$A$GT$$u20$as$u20$core..ops..deref..Deref$GT$5deref17h70cbdade11d89f06E
	mov	x2, x0
	ldur	x0, [x29, #-16]
	stur	x2, [x29, #-32]
	str	x1, [sp, #40]
	bl	__ZN4main7vm_util8StackPtr7get_idx17h0e012aab37abcf33E
	ldr	x1, [sp, #40]
	mov	x2, x0
	ldur	x0, [x29, #-32]
	bl	__ZN4core5slice29_$LT$impl$u20$$u5b$T$u5d$$GT$13get_unchecked17h244297f580e1b3d5E
	stur	x0, [x29, #-8]
	b	LBB250_3
LBB250_2:
	ldur	x0, [x29, #-24]
	bl	__ZN72_$LT$alloc..vec..Vec$LT$T$C$A$GT$$u20$as$u20$core..ops..deref..Deref$GT$5deref17h70cbdade11d89f06E
	mov	x2, x0
	ldur	x0, [x29, #-16]
	str	x2, [sp, #8]
	str	x1, [sp, #16]
	bl	__ZN4main7vm_util8StackPtr7get_idx17h0e012aab37abcf33E
	mov	x8, x0
	ldur	x0, [x29, #-24]
	str	x8, [sp, #24]
	bl	__ZN4main7vm_util5Stack16read_stack_frame17h9315cae95e177d90E
	mov	x8, x0
	ldr	x0, [sp, #24]
	adds	x8, x0, x8
	str	x8, [sp, #32]
	cset	w8, hs
	tbnz	w8, #0, LBB250_5
	b	LBB250_4
LBB250_3:
	ldur	x0, [x29, #-8]
	.cfi_def_cfa wsp, 96
	ldp	x29, x30, [sp, #80]
	add	sp, sp, #96
	.cfi_def_cfa_offset 0
	.cfi_restore w30
	.cfi_restore w29
	ret
LBB250_4:
	.cfi_restore_state
	ldr	x2, [sp, #32]
	ldr	x1, [sp, #16]
	ldr	x0, [sp, #8]
	bl	__ZN4core5slice29_$LT$impl$u20$$u5b$T$u5d$$GT$13get_unchecked17h244297f580e1b3d5E
	stur	x0, [x29, #-8]
	b	LBB250_3
LBB250_5:
	adrp	x0, _str.2@PAGE
	add	x0, x0, _str.2@PAGEOFF
	mov	w8, #28
	mov	x1, x8
	adrp	x2, l___unnamed_62@PAGE
	add	x2, x2, l___unnamed_62@PAGEOFF
	bl	__ZN4core9panicking5panic17hc59c8a709a9b37aeE
	.cfi_endproc

	.p2align	2
__ZN4main7vm_util5Stack4push17hf8474d57900a6c0fE:
	.cfi_startproc
	sub	sp, sp, #32
	.cfi_def_cfa_offset 32
	stp	x29, x30, [sp, #16]
	add	x29, sp, #16
	.cfi_def_cfa w29, 16
	.cfi_offset w30, -8
	.cfi_offset w29, -16
	ldr	q0, [x1]
	mov	x1, sp
	str	q0, [sp]
	bl	__ZN5alloc3vec16Vec$LT$T$C$A$GT$4push17h369134e97c19391dE
	.cfi_def_cfa wsp, 32
	ldp	x29, x30, [sp, #16]
	add	sp, sp, #32
	.cfi_def_cfa_offset 0
	.cfi_restore w30
	.cfi_restore w29
	ret
	.cfi_endproc

	.p2align	2
__ZN4main7vm_util5Stack8truncate17h0d9f5788a7945e3eE:
	.cfi_startproc
	stp	x29, x30, [sp, #-16]!
	.cfi_def_cfa_offset 16
	mov	x29, sp
	.cfi_def_cfa w29, 16
	.cfi_offset w30, -8
	.cfi_offset w29, -16
	bl	__ZN5alloc3vec16Vec$LT$T$C$A$GT$8truncate17hb431a5a89fa1cfadE
	.cfi_def_cfa wsp, 16
	ldp	x29, x30, [sp], #16
	.cfi_def_cfa_offset 0
	.cfi_restore w30
	.cfi_restore w29
	ret
	.cfi_endproc

	.p2align	2
__ZN4main7vm_util5Stack16push_stack_frame17ha9f296821220ecf7E:
	.cfi_startproc
	stp	x29, x30, [sp, #-16]!
	.cfi_def_cfa_offset 16
	mov	x29, sp
	.cfi_def_cfa w29, 16
	.cfi_offset w30, -8
	.cfi_offset w29, -16
	add	x0, x0, #24
	bl	__ZN5alloc3vec16Vec$LT$T$C$A$GT$4push17h387bfeda0baaabafE
	.cfi_def_cfa wsp, 16
	ldp	x29, x30, [sp], #16
	.cfi_def_cfa_offset 0
	.cfi_restore w30
	.cfi_restore w29
	ret
	.cfi_endproc

	.p2align	2
__ZN4main7vm_util5Stack16read_stack_frame17h9315cae95e177d90E:
	.cfi_startproc
	sub	sp, sp, #48
	.cfi_def_cfa_offset 48
	stp	x29, x30, [sp, #32]
	add	x29, sp, #32
	.cfi_def_cfa w29, 16
	.cfi_offset w30, -8
	.cfi_offset w29, -16
	.cfi_remember_state
	str	x0, [sp]
	add	x0, x0, #24
	bl	__ZN72_$LT$alloc..vec..Vec$LT$T$C$A$GT$$u20$as$u20$core..ops..deref..Deref$GT$5deref17h6346f7eaf8ebae4cE
	mov	x2, x0
	ldr	x0, [sp]
	str	x2, [sp, #8]
	str	x1, [sp, #16]
	add	x0, x0, #24
	bl	__ZN5alloc3vec16Vec$LT$T$C$A$GT$3len17h27d589a0d32c4e01E
	subs	x8, x0, #1
	stur	x8, [x29, #-8]
	subs	x8, x0, #1
	b.lo	LBB254_2
	b	LBB254_1
LBB254_1:
	ldur	x2, [x29, #-8]
	ldr	x1, [sp, #16]
	ldr	x0, [sp, #8]
	bl	__ZN4core5slice29_$LT$impl$u20$$u5b$T$u5d$$GT$13get_unchecked17h21f22e255f836a66E
	ldr	x0, [x0]
	.cfi_def_cfa wsp, 48
	ldp	x29, x30, [sp, #32]
	add	sp, sp, #48
	.cfi_def_cfa_offset 0
	.cfi_restore w30
	.cfi_restore w29
	ret
LBB254_2:
	.cfi_restore_state
	adrp	x0, _str.5@PAGE
	add	x0, x0, _str.5@PAGEOFF
	mov	w8, #33
	mov	x1, x8
	adrp	x2, l___unnamed_63@PAGE
	add	x2, x2, l___unnamed_63@PAGEOFF
	bl	__ZN4core9panicking5panic17hc59c8a709a9b37aeE
	.cfi_endproc

	.p2align	2
__ZN4main7vm_util5Stack15pop_stack_frame17h14e601ae09d004d1E:
	.cfi_startproc
	stp	x29, x30, [sp, #-16]!
	.cfi_def_cfa_offset 16
	mov	x29, sp
	.cfi_def_cfa w29, 16
	.cfi_offset w30, -8
	.cfi_offset w29, -16
	add	x0, x0, #24
	bl	__ZN5alloc3vec16Vec$LT$T$C$A$GT$3pop17h8ece746ea8cd90fbE
	.cfi_def_cfa wsp, 16
	ldp	x29, x30, [sp], #16
	.cfi_def_cfa_offset 0
	.cfi_restore w30
	.cfi_restore w29
	ret
	.cfi_endproc

	.p2align	2
__ZN4main7vm_util5Stack3len17h2e0f01840a525a37E:
	.cfi_startproc
	stp	x29, x30, [sp, #-16]!
	.cfi_def_cfa_offset 16
	mov	x29, sp
	.cfi_def_cfa w29, 16
	.cfi_offset w30, -8
	.cfi_offset w29, -16
	bl	__ZN5alloc3vec16Vec$LT$T$C$A$GT$3len17haf3dcdb1269e75b5E
	.cfi_def_cfa wsp, 16
	ldp	x29, x30, [sp], #16
	.cfi_def_cfa_offset 0
	.cfi_restore w30
	.cfi_restore w29
	ret
	.cfi_endproc

	.p2align	2
__ZN4main7vm_util10StackValue10unwrap_val17h6371c624edab9ae2E:
	.cfi_startproc
	sub	sp, sp, #112
	.cfi_def_cfa_offset 112
	stp	x29, x30, [sp, #96]
	add	x29, sp, #96
	.cfi_def_cfa w29, 16
	.cfi_offset w30, -8
	.cfi_offset w29, -16
	str	x0, [sp]
	adrp	x8, l___unnamed_64@PAGE
	add	x8, x8, l___unnamed_64@PAGEOFF
	mov	x9, x8
	str	x9, [sp, #24]
	str	x8, [sp, #32]
	ldr	x8, [sp, #24]
	str	x8, [sp, #8]
	ldr	x9, [sp, #32]
	str	x9, [sp, #16]
	ldr	x8, [x8]
	ldr	x9, [x9]
	subs	x8, x8, x9
	b.eq	LBB257_2
	b	LBB257_1
LBB257_1:
	ldr	x2, [sp, #16]
	ldr	x1, [sp, #8]
	strb	wzr, [sp, #47]
	add	x3, sp, #48
	str	xzr, [sp, #48]
	ldrb	w0, [sp, #47]
	adrp	x4, l___unnamed_65@PAGE
	add	x4, x4, l___unnamed_65@PAGEOFF
	bl	__ZN4core9panicking13assert_failed17h34e476f4fba23c5eE
LBB257_2:
	ldr	x0, [sp]
	.cfi_def_cfa wsp, 112
	ldp	x29, x30, [sp, #96]
	add	sp, sp, #112
	.cfi_def_cfa_offset 0
	.cfi_restore w30
	.cfi_restore w29
	ret
	.cfi_endproc

	.p2align	2
__ZN4main7vm_util10StackValue13unwrap_fn_ptr17hc6af2877f010ef79E:
	.cfi_startproc
	stp	x29, x30, [sp, #-16]!
	.cfi_def_cfa_offset 16
	mov	x29, sp
	.cfi_def_cfa w29, 16
	.cfi_offset w30, -8
	.cfi_offset w29, -16
	mov	w1, #64
	adrp	x2, l___unnamed_66@PAGE
	add	x2, x2, l___unnamed_66@PAGEOFF
	bl	__ZN59_$LT$$RF$u128$u20$as$u20$core..ops..bit..Shr$LT$i32$GT$$GT$3shr17h1514458bce170824E
	.cfi_def_cfa wsp, 16
	ldp	x29, x30, [sp], #16
	.cfi_def_cfa_offset 0
	.cfi_restore w30
	.cfi_restore w29
	ret
	.cfi_endproc

	.p2align	2
__ZN4main7vm_util13RegisterValue7get_val17h13f06b83c0370ad1E:
	.cfi_startproc
	sub	sp, sp, #48
	.cfi_def_cfa_offset 48
	stp	x29, x30, [sp, #32]
	add	x29, sp, #32
	.cfi_def_cfa w29, 16
	.cfi_offset w30, -8
	.cfi_offset w29, -16
	str	x0, [sp]
	str	x1, [sp, #8]
	str	x2, [sp, #16]
	ldrb	w8, [x0]
	subs	w8, w8, #3
	cset	x8, ne
	cbnz	x8, LBB259_2
	b	LBB259_1
LBB259_1:
	ldr	x1, [sp, #16]
	ldr	x0, [sp, #8]
	ldr	x8, [sp]
	ldr	x2, [x8, #8]
	bl	__ZN4core5slice29_$LT$impl$u20$$u5b$T$u5d$$GT$13get_unchecked17hc2b02be7afc34c85E
	stur	x0, [x29, #-8]
	b	LBB259_3
LBB259_2:
	ldr	x8, [sp]
	stur	x8, [x29, #-8]
	b	LBB259_3
LBB259_3:
	ldur	x0, [x29, #-8]
	.cfi_def_cfa wsp, 48
	ldp	x29, x30, [sp, #32]
	add	sp, sp, #48
	.cfi_def_cfa_offset 0
	.cfi_restore w30
	.cfi_restore w29
	ret
	.cfi_endproc

	.p2align	2
__ZN4main16rules_approach_39halt_rule17hbb075f246d4b0f3dE:
	.cfi_startproc
	sub	sp, sp, #32
	.cfi_def_cfa_offset 32
	stp	x29, x30, [sp, #16]
	add	x29, sp, #16
	.cfi_def_cfa w29, 16
	.cfi_offset w30, -8
	.cfi_offset w29, -16
	.cfi_remember_state
	mov	x0, x4
	str	x0, [sp]
	bl	__ZN4main9Registers6get_ip17hc33f2887d7bd86c3E
	adds	x8, x0, #1
	str	x8, [sp, #8]
	cset	w8, hs
	tbnz	w8, #0, LBB260_2
	b	LBB260_1
LBB260_1:
	ldr	x1, [sp, #8]
	ldr	x0, [sp]
	bl	__ZN4main9Registers6set_ip17h5ac825b8f5ec62e9E
	.cfi_def_cfa wsp, 32
	ldp	x29, x30, [sp, #16]
	add	sp, sp, #32
	.cfi_def_cfa_offset 0
	.cfi_restore w30
	.cfi_restore w29
	ret
LBB260_2:
	.cfi_restore_state
	adrp	x0, _str.2@PAGE
	add	x0, x0, _str.2@PAGEOFF
	mov	w8, #28
	mov	x1, x8
	adrp	x2, l___unnamed_67@PAGE
	add	x2, x2, l___unnamed_67@PAGEOFF
	bl	__ZN4core9panicking5panic17hc59c8a709a9b37aeE
	.cfi_endproc

	.p2align	2
__ZN4main16rules_approach_38add_rule17hdffbdf5f034a7464E:
	.cfi_startproc
	sub	sp, sp, #176
	.cfi_def_cfa_offset 176
	stp	x29, x30, [sp, #160]
	add	x29, sp, #160
	.cfi_def_cfa w29, 16
	.cfi_offset w30, -8
	.cfi_offset w29, -16
	str	x0, [sp, #8]
	str	x1, [sp, #72]
	str	x2, [sp, #80]
	stur	x3, [x29, #-72]
	stur	x4, [x29, #-64]
	mov	w8, #4
	mov	x1, x8
	str	x1, [sp]
	mov	x2, #0
	bl	__ZN4core5slice29_$LT$impl$u20$$u5b$T$u5d$$GT$13get_unchecked17heef6f6ced702b0f7E
	bl	__ZN4main12instructions7Operand10unwrap_dst17h7efd48c761d53b64E
	ldr	x1, [sp]
	mov	x2, x0
	ldr	x0, [sp, #8]
	str	x2, [sp, #16]
	mov	w8, #1
	mov	x2, x8
	bl	__ZN4core5slice29_$LT$impl$u20$$u5b$T$u5d$$GT$13get_unchecked17heef6f6ced702b0f7E
	bl	__ZN4main12instructions7Operand10unwrap_src17h8ce2eb25021ad200E
	ldr	x1, [sp]
	mov	x2, x0
	ldr	x0, [sp, #8]
	str	x2, [sp, #24]
	mov	w8, #2
	mov	x2, x8
	bl	__ZN4core5slice29_$LT$impl$u20$$u5b$T$u5d$$GT$13get_unchecked17heef6f6ced702b0f7E
	bl	__ZN4main12instructions7Operand10unwrap_src17h8ce2eb25021ad200E
	ldr	x9, [sp, #16]
	ldr	x8, [sp, #24]
	stur	x9, [x29, #-56]
	stur	x8, [x29, #-48]
	stur	x0, [x29, #-40]
	ldur	x8, [x29, #-56]
	str	x8, [sp, #40]
	ldur	x0, [x29, #-48]
	ldur	x8, [x29, #-40]
	str	x8, [sp, #32]
	ldr	x1, [sp, #72]
	ldr	x2, [sp, #80]
	ldur	x3, [x29, #-72]
	ldur	x4, [x29, #-64]
	bl	__ZN4main7vm_util3Src7get_val17h89eb451d16de3c73E
	mov	x1, x0
	ldr	x0, [sp, #32]
	str	x1, [sp, #48]
	ldr	x1, [sp, #72]
	ldr	x2, [sp, #80]
	ldur	x3, [x29, #-72]
	ldur	x4, [x29, #-64]
	bl	__ZN4main7vm_util3Src7get_val17h89eb451d16de3c73E
	ldr	x8, [sp, #40]
	mov	x1, x0
	ldr	x0, [sp, #48]
	ldur	x9, [x29, #-64]
	str	x9, [sp, #56]
	ldrb	w8, [x8]
	str	w8, [sp, #68]
	sub	x8, x29, #16
	bl	__ZN4main7vm_util5Value3add17hc9b1ea27128f8b31E
	ldr	x0, [sp, #56]
	ldr	w1, [sp, #68]
	ldur	q0, [x29, #-16]
	sub	x2, x29, #32
	stur	q0, [x29, #-32]
	bl	__ZN4main9Registers7set_reg17h7064e2aa42c06f9eE
	ldur	x0, [x29, #-64]
	bl	__ZN4main9Registers6inc_ip17hb67aa2a2bee90fdaE
	.cfi_def_cfa wsp, 176
	ldp	x29, x30, [sp, #160]
	add	sp, sp, #176
	.cfi_def_cfa_offset 0
	.cfi_restore w30
	.cfi_restore w29
	ret
	.cfi_endproc

	.p2align	2
__ZN4main16rules_approach_38sub_rule17hb9b5f4ea22098fd7E:
	.cfi_startproc
	sub	sp, sp, #176
	.cfi_def_cfa_offset 176
	stp	x29, x30, [sp, #160]
	add	x29, sp, #160
	.cfi_def_cfa w29, 16
	.cfi_offset w30, -8
	.cfi_offset w29, -16
	str	x0, [sp, #8]
	str	x1, [sp, #72]
	str	x2, [sp, #80]
	stur	x3, [x29, #-72]
	stur	x4, [x29, #-64]
	mov	w8, #4
	mov	x1, x8
	str	x1, [sp]
	mov	x2, #0
	bl	__ZN4core5slice29_$LT$impl$u20$$u5b$T$u5d$$GT$13get_unchecked17heef6f6ced702b0f7E
	bl	__ZN4main12instructions7Operand10unwrap_dst17h7efd48c761d53b64E
	ldr	x1, [sp]
	mov	x2, x0
	ldr	x0, [sp, #8]
	str	x2, [sp, #16]
	mov	w8, #1
	mov	x2, x8
	bl	__ZN4core5slice29_$LT$impl$u20$$u5b$T$u5d$$GT$13get_unchecked17heef6f6ced702b0f7E
	bl	__ZN4main12instructions7Operand10unwrap_src17h8ce2eb25021ad200E
	ldr	x1, [sp]
	mov	x2, x0
	ldr	x0, [sp, #8]
	str	x2, [sp, #24]
	mov	w8, #2
	mov	x2, x8
	bl	__ZN4core5slice29_$LT$impl$u20$$u5b$T$u5d$$GT$13get_unchecked17heef6f6ced702b0f7E
	bl	__ZN4main12instructions7Operand10unwrap_src17h8ce2eb25021ad200E
	ldr	x9, [sp, #16]
	ldr	x8, [sp, #24]
	stur	x9, [x29, #-56]
	stur	x8, [x29, #-48]
	stur	x0, [x29, #-40]
	ldur	x8, [x29, #-56]
	str	x8, [sp, #40]
	ldur	x0, [x29, #-48]
	ldur	x8, [x29, #-40]
	str	x8, [sp, #32]
	ldr	x1, [sp, #72]
	ldr	x2, [sp, #80]
	ldur	x3, [x29, #-72]
	ldur	x4, [x29, #-64]
	bl	__ZN4main7vm_util3Src7get_val17h89eb451d16de3c73E
	mov	x1, x0
	ldr	x0, [sp, #32]
	str	x1, [sp, #48]
	ldr	x1, [sp, #72]
	ldr	x2, [sp, #80]
	ldur	x3, [x29, #-72]
	ldur	x4, [x29, #-64]
	bl	__ZN4main7vm_util3Src7get_val17h89eb451d16de3c73E
	ldr	x8, [sp, #40]
	mov	x1, x0
	ldr	x0, [sp, #48]
	ldur	x9, [x29, #-64]
	str	x9, [sp, #56]
	ldrb	w8, [x8]
	str	w8, [sp, #68]
	sub	x8, x29, #16
	bl	__ZN4main7vm_util5Value3sub17hd68d6234769dfb5dE
	ldr	x0, [sp, #56]
	ldr	w1, [sp, #68]
	ldur	q0, [x29, #-16]
	sub	x2, x29, #32
	stur	q0, [x29, #-32]
	bl	__ZN4main9Registers7set_reg17h7064e2aa42c06f9eE
	ldur	x0, [x29, #-64]
	bl	__ZN4main9Registers6inc_ip17hb67aa2a2bee90fdaE
	.cfi_def_cfa wsp, 176
	ldp	x29, x30, [sp, #160]
	add	sp, sp, #176
	.cfi_def_cfa_offset 0
	.cfi_restore w30
	.cfi_restore w29
	ret
	.cfi_endproc

	.p2align	2
__ZN4main16rules_approach_38mul_rule17ha851ec2311b00d75E:
	.cfi_startproc
	sub	sp, sp, #176
	.cfi_def_cfa_offset 176
	stp	x29, x30, [sp, #160]
	add	x29, sp, #160
	.cfi_def_cfa w29, 16
	.cfi_offset w30, -8
	.cfi_offset w29, -16
	str	x0, [sp, #8]
	str	x1, [sp, #72]
	str	x2, [sp, #80]
	stur	x3, [x29, #-72]
	stur	x4, [x29, #-64]
	mov	w8, #4
	mov	x1, x8
	str	x1, [sp]
	mov	x2, #0
	bl	__ZN4core5slice29_$LT$impl$u20$$u5b$T$u5d$$GT$13get_unchecked17heef6f6ced702b0f7E
	bl	__ZN4main12instructions7Operand10unwrap_dst17h7efd48c761d53b64E
	ldr	x1, [sp]
	mov	x2, x0
	ldr	x0, [sp, #8]
	str	x2, [sp, #16]
	mov	w8, #1
	mov	x2, x8
	bl	__ZN4core5slice29_$LT$impl$u20$$u5b$T$u5d$$GT$13get_unchecked17heef6f6ced702b0f7E
	bl	__ZN4main12instructions7Operand10unwrap_src17h8ce2eb25021ad200E
	ldr	x1, [sp]
	mov	x2, x0
	ldr	x0, [sp, #8]
	str	x2, [sp, #24]
	mov	w8, #2
	mov	x2, x8
	bl	__ZN4core5slice29_$LT$impl$u20$$u5b$T$u5d$$GT$13get_unchecked17heef6f6ced702b0f7E
	bl	__ZN4main12instructions7Operand10unwrap_src17h8ce2eb25021ad200E
	ldr	x9, [sp, #16]
	ldr	x8, [sp, #24]
	stur	x9, [x29, #-56]
	stur	x8, [x29, #-48]
	stur	x0, [x29, #-40]
	ldur	x8, [x29, #-56]
	str	x8, [sp, #40]
	ldur	x0, [x29, #-48]
	ldur	x8, [x29, #-40]
	str	x8, [sp, #32]
	ldr	x1, [sp, #72]
	ldr	x2, [sp, #80]
	ldur	x3, [x29, #-72]
	ldur	x4, [x29, #-64]
	bl	__ZN4main7vm_util3Src7get_val17h89eb451d16de3c73E
	mov	x1, x0
	ldr	x0, [sp, #32]
	str	x1, [sp, #48]
	ldr	x1, [sp, #72]
	ldr	x2, [sp, #80]
	ldur	x3, [x29, #-72]
	ldur	x4, [x29, #-64]
	bl	__ZN4main7vm_util3Src7get_val17h89eb451d16de3c73E
	ldr	x8, [sp, #40]
	mov	x1, x0
	ldr	x0, [sp, #48]
	ldur	x9, [x29, #-64]
	str	x9, [sp, #56]
	ldrb	w8, [x8]
	str	w8, [sp, #68]
	sub	x8, x29, #16
	bl	__ZN4main7vm_util5Value3mul17he602582e17797115E
	ldr	x0, [sp, #56]
	ldr	w1, [sp, #68]
	ldur	q0, [x29, #-16]
	sub	x2, x29, #32
	stur	q0, [x29, #-32]
	bl	__ZN4main9Registers7set_reg17h7064e2aa42c06f9eE
	ldur	x0, [x29, #-64]
	bl	__ZN4main9Registers6inc_ip17hb67aa2a2bee90fdaE
	.cfi_def_cfa wsp, 176
	ldp	x29, x30, [sp, #160]
	add	sp, sp, #176
	.cfi_def_cfa_offset 0
	.cfi_restore w30
	.cfi_restore w29
	ret
	.cfi_endproc

	.p2align	2
__ZN4main16rules_approach_38div_rule17h0e3ddd5be354696bE:
	.cfi_startproc
	sub	sp, sp, #176
	.cfi_def_cfa_offset 176
	stp	x29, x30, [sp, #160]
	add	x29, sp, #160
	.cfi_def_cfa w29, 16
	.cfi_offset w30, -8
	.cfi_offset w29, -16
	str	x0, [sp, #8]
	str	x1, [sp, #72]
	str	x2, [sp, #80]
	stur	x3, [x29, #-72]
	stur	x4, [x29, #-64]
	mov	w8, #4
	mov	x1, x8
	str	x1, [sp]
	mov	x2, #0
	bl	__ZN4core5slice29_$LT$impl$u20$$u5b$T$u5d$$GT$13get_unchecked17heef6f6ced702b0f7E
	bl	__ZN4main12instructions7Operand10unwrap_dst17h7efd48c761d53b64E
	ldr	x1, [sp]
	mov	x2, x0
	ldr	x0, [sp, #8]
	str	x2, [sp, #16]
	mov	w8, #1
	mov	x2, x8
	bl	__ZN4core5slice29_$LT$impl$u20$$u5b$T$u5d$$GT$13get_unchecked17heef6f6ced702b0f7E
	bl	__ZN4main12instructions7Operand10unwrap_src17h8ce2eb25021ad200E
	ldr	x1, [sp]
	mov	x2, x0
	ldr	x0, [sp, #8]
	str	x2, [sp, #24]
	mov	w8, #2
	mov	x2, x8
	bl	__ZN4core5slice29_$LT$impl$u20$$u5b$T$u5d$$GT$13get_unchecked17heef6f6ced702b0f7E
	bl	__ZN4main12instructions7Operand10unwrap_src17h8ce2eb25021ad200E
	ldr	x9, [sp, #16]
	ldr	x8, [sp, #24]
	stur	x9, [x29, #-56]
	stur	x8, [x29, #-48]
	stur	x0, [x29, #-40]
	ldur	x8, [x29, #-56]
	str	x8, [sp, #40]
	ldur	x0, [x29, #-48]
	ldur	x8, [x29, #-40]
	str	x8, [sp, #32]
	ldr	x1, [sp, #72]
	ldr	x2, [sp, #80]
	ldur	x3, [x29, #-72]
	ldur	x4, [x29, #-64]
	bl	__ZN4main7vm_util3Src7get_val17h89eb451d16de3c73E
	mov	x1, x0
	ldr	x0, [sp, #32]
	str	x1, [sp, #48]
	ldr	x1, [sp, #72]
	ldr	x2, [sp, #80]
	ldur	x3, [x29, #-72]
	ldur	x4, [x29, #-64]
	bl	__ZN4main7vm_util3Src7get_val17h89eb451d16de3c73E
	ldr	x8, [sp, #40]
	mov	x1, x0
	ldr	x0, [sp, #48]
	ldur	x9, [x29, #-64]
	str	x9, [sp, #56]
	ldrb	w8, [x8]
	str	w8, [sp, #68]
	sub	x8, x29, #16
	bl	__ZN4main7vm_util5Value3div17he68c9a11be5f0467E
	ldr	x0, [sp, #56]
	ldr	w1, [sp, #68]
	ldur	q0, [x29, #-16]
	sub	x2, x29, #32
	stur	q0, [x29, #-32]
	bl	__ZN4main9Registers7set_reg17h7064e2aa42c06f9eE
	ldur	x0, [x29, #-64]
	bl	__ZN4main9Registers6inc_ip17hb67aa2a2bee90fdaE
	.cfi_def_cfa wsp, 176
	ldp	x29, x30, [sp, #160]
	add	sp, sp, #176
	.cfi_def_cfa_offset 0
	.cfi_restore w30
	.cfi_restore w29
	ret
	.cfi_endproc

	.p2align	2
__ZN4main16rules_approach_318push_function_rule17h0abe9084717f69c6E:
	.cfi_startproc
	sub	sp, sp, #64
	.cfi_def_cfa_offset 64
	stp	x29, x30, [sp, #48]
	add	x29, sp, #48
	.cfi_def_cfa w29, 16
	.cfi_offset w30, -8
	.cfi_offset w29, -16
	.cfi_remember_state
	str	x3, [sp, #8]
	str	x4, [sp]
	mov	w8, #4
	mov	x1, x8
	mov	x2, #0
	bl	__ZN4core5slice29_$LT$impl$u20$$u5b$T$u5d$$GT$13get_unchecked17heef6f6ced702b0f7E
	bl	__ZN4main12instructions7Operand20unwrap_instrs_amount17h1886dad8a24573ecE
	mov	x8, x0
	ldr	x0, [sp]
	str	x8, [sp, #16]
	bl	__ZN4main9Registers6get_ip17hc33f2887d7bd86c3E
	mov	x8, x0
	ldr	x0, [sp, #8]
	sub	x1, x29, #16
	stur	x8, [x29, #-8]
	mov	w8, #3
	sturb	w8, [x29, #-16]
	bl	__ZN4main7vm_util5Stack4push17hf8474d57900a6c0fE
	ldr	x0, [sp, #16]
	adds	x8, x0, #1
	str	x8, [sp, #24]
	cset	w8, hs
	tbnz	w8, #0, LBB265_2
	b	LBB265_1
LBB265_1:
	ldr	x1, [sp, #24]
	ldr	x0, [sp]
	bl	__ZN4main9Registers6add_ip17hb3c329094c540883E
	.cfi_def_cfa wsp, 64
	ldp	x29, x30, [sp, #48]
	add	sp, sp, #64
	.cfi_def_cfa_offset 0
	.cfi_restore w30
	.cfi_restore w29
	ret
LBB265_2:
	.cfi_restore_state
	adrp	x0, _str.2@PAGE
	add	x0, x0, _str.2@PAGEOFF
	mov	w8, #28
	mov	x1, x8
	adrp	x2, l___unnamed_68@PAGE
	add	x2, x2, l___unnamed_68@PAGEOFF
	bl	__ZN4core9panicking5panic17hc59c8a709a9b37aeE
	.cfi_endproc

	.p2align	2
__ZN4main16rules_approach_316cmp_lt_jump_rule17h3eccff231d922f4aE:
	.cfi_startproc
	sub	sp, sp, #160
	.cfi_def_cfa_offset 160
	stp	x29, x30, [sp, #144]
	add	x29, sp, #144
	.cfi_def_cfa w29, 16
	.cfi_offset w30, -8
	.cfi_offset w29, -16
	str	x0, [sp, #16]
	str	x1, [sp, #64]
	str	x2, [sp, #72]
	stur	x3, [x29, #-64]
	stur	x4, [x29, #-56]
	mov	w8, #4
	mov	x1, x8
	str	x1, [sp, #8]
	mov	x2, #0
	bl	__ZN4core5slice29_$LT$impl$u20$$u5b$T$u5d$$GT$13get_unchecked17heef6f6ced702b0f7E
	bl	__ZN4main12instructions7Operand10unwrap_src17h8ce2eb25021ad200E
	ldr	x1, [sp, #8]
	mov	x2, x0
	ldr	x0, [sp, #16]
	str	x2, [sp, #24]
	mov	w8, #1
	mov	x2, x8
	bl	__ZN4core5slice29_$LT$impl$u20$$u5b$T$u5d$$GT$13get_unchecked17heef6f6ced702b0f7E
	bl	__ZN4main12instructions7Operand10unwrap_src17h8ce2eb25021ad200E
	ldr	x1, [sp, #8]
	mov	x2, x0
	ldr	x0, [sp, #16]
	str	x2, [sp, #32]
	mov	w8, #2
	mov	x2, x8
	bl	__ZN4core5slice29_$LT$impl$u20$$u5b$T$u5d$$GT$13get_unchecked17heef6f6ced702b0f7E
	bl	__ZN4main12instructions7Operand14unwrap_jmp_pos17h49d5dd2a8bc7be66E
	ldr	x1, [sp, #8]
	mov	x8, x0
	ldr	x0, [sp, #16]
	str	x8, [sp, #40]
	mov	w8, #3
	mov	x2, x8
	bl	__ZN4core5slice29_$LT$impl$u20$$u5b$T$u5d$$GT$13get_unchecked17heef6f6ced702b0f7E
	bl	__ZN4main12instructions7Operand14unwrap_jmp_pos17h49d5dd2a8bc7be66E
	ldr	x10, [sp, #24]
	ldr	x9, [sp, #32]
	ldr	x8, [sp, #40]
	ldr	x1, [sp, #64]
	ldr	x2, [sp, #72]
	ldur	x3, [x29, #-64]
	ldur	x4, [x29, #-56]
	stur	x10, [x29, #-32]
	stur	x9, [x29, #-24]
	stur	x8, [x29, #-16]
	stur	x0, [x29, #-8]
	ldur	x0, [x29, #-32]
	ldur	x8, [x29, #-24]
	stur	x8, [x29, #-48]
	ldur	x8, [x29, #-16]
	str	x8, [sp, #48]
	ldur	x8, [x29, #-8]
	str	x8, [sp, #56]
	bl	__ZN4main7vm_util3Src7get_val17h89eb451d16de3c73E
	ldr	x1, [sp, #64]
	ldr	x2, [sp, #72]
	ldur	x3, [x29, #-64]
	ldur	x4, [x29, #-56]
	mov	x5, x0
	ldur	x0, [x29, #-48]
	stur	x5, [x29, #-40]
	bl	__ZN4main7vm_util3Src7get_val17h89eb451d16de3c73E
	mov	x1, x0
	ldur	x0, [x29, #-40]
	bl	__ZN4main7vm_util5Value5cmp_l17hf0d8db80eb6e44ccE
	tbnz	w0, #0, LBB266_2
	b	LBB266_1
LBB266_1:
	ldr	x1, [sp, #56]
	ldur	x0, [x29, #-56]
	bl	__ZN4main9Registers6set_ip17h5ac825b8f5ec62e9E
	b	LBB266_3
LBB266_2:
	ldr	x1, [sp, #48]
	ldur	x0, [x29, #-56]
	bl	__ZN4main9Registers6set_ip17h5ac825b8f5ec62e9E
	b	LBB266_3
LBB266_3:
	.cfi_def_cfa wsp, 160
	ldp	x29, x30, [sp, #144]
	add	sp, sp, #160
	.cfi_def_cfa_offset 0
	.cfi_restore w30
	.cfi_restore w29
	ret
	.cfi_endproc

	.p2align	2
__ZN4main16rules_approach_39call_rule17hab79b569da00cc74E:
	.cfi_startproc
	sub	sp, sp, #112
	.cfi_def_cfa_offset 112
	stp	x29, x30, [sp, #96]
	add	x29, sp, #96
	.cfi_def_cfa w29, 16
	.cfi_offset w30, -8
	.cfi_offset w29, -16
	.cfi_remember_state
	str	x0, [sp, #32]
	str	x3, [sp, #48]
	str	x4, [sp, #16]
	mov	w8, #4
	mov	x1, x8
	str	x1, [sp, #24]
	mov	x2, #0
	bl	__ZN4core5slice29_$LT$impl$u20$$u5b$T$u5d$$GT$13get_unchecked17heef6f6ced702b0f7E
	bl	__ZN4main12instructions7Operand16unwrap_stack_ptr17h6d961735c953a191E
	ldr	x1, [sp, #24]
	mov	x2, x0
	ldr	x0, [sp, #32]
	str	x2, [sp, #40]
	mov	w8, #1
	mov	x2, x8
	bl	__ZN4core5slice29_$LT$impl$u20$$u5b$T$u5d$$GT$13get_unchecked17heef6f6ced702b0f7E
	bl	__ZN4main12instructions7Operand17unwrap_args_count17h383375d773e28d50E
	ldr	x9, [sp, #40]
	mov	x8, x0
	ldr	x0, [sp, #48]
	stur	x9, [x29, #-16]
	stur	x8, [x29, #-8]
	ldur	x8, [x29, #-16]
	stur	x8, [x29, #-40]
	ldur	x8, [x29, #-8]
	stur	x8, [x29, #-32]
	bl	__ZN4main7vm_util5Stack3len17h2e0f01840a525a37E
	ldur	x8, [x29, #-32]
	subs	x9, x0, x8
	stur	x9, [x29, #-24]
	subs	x8, x0, x8
	b.lo	LBB267_2
	b	LBB267_1
LBB267_1:
	ldr	x0, [sp, #48]
	ldur	x1, [x29, #-24]
	bl	__ZN4main7vm_util5Stack16push_stack_frame17ha9f296821220ecf7E
	ldr	x0, [sp, #48]
	ldur	x1, [x29, #-40]
	bl	__ZN4main7vm_util5Stack3get17h6f97994b4e633039E
	bl	__ZN4main7vm_util10StackValue13unwrap_fn_ptr17hc6af2877f010ef79E
	adds	x8, x0, #1
	str	x8, [sp, #8]
	cset	w8, hs
	tbnz	w8, #0, LBB267_4
	b	LBB267_3
LBB267_2:
	adrp	x0, _str.5@PAGE
	add	x0, x0, _str.5@PAGEOFF
	mov	w8, #33
	mov	x1, x8
	adrp	x2, l___unnamed_69@PAGE
	add	x2, x2, l___unnamed_69@PAGEOFF
	bl	__ZN4core9panicking5panic17hc59c8a709a9b37aeE
LBB267_3:
	ldr	x1, [sp, #8]
	ldr	x0, [sp, #16]
	bl	__ZN4main9Registers6set_ip17h5ac825b8f5ec62e9E
	.cfi_def_cfa wsp, 112
	ldp	x29, x30, [sp, #96]
	add	sp, sp, #112
	.cfi_def_cfa_offset 0
	.cfi_restore w30
	.cfi_restore w29
	ret
LBB267_4:
	.cfi_restore_state
	adrp	x0, _str.2@PAGE
	add	x0, x0, _str.2@PAGEOFF
	mov	w8, #28
	mov	x1, x8
	adrp	x2, l___unnamed_70@PAGE
	add	x2, x2, l___unnamed_70@PAGEOFF
	bl	__ZN4core9panicking5panic17hc59c8a709a9b37aeE
	.cfi_endproc

	.p2align	2
__ZN4main16rules_approach_38ret_rule17h7e5c19167dfe3b7bE:
	.cfi_startproc
	sub	sp, sp, #80
	.cfi_def_cfa_offset 80
	stp	x29, x30, [sp, #64]
	add	x29, sp, #64
	.cfi_def_cfa w29, 16
	.cfi_offset w30, -8
	.cfi_offset w29, -16
	str	x1, [sp]
	str	x2, [sp, #8]
	str	x3, [sp, #24]
	str	x4, [sp, #16]
	mov	w8, #4
	mov	x1, x8
	mov	x2, #0
	bl	__ZN4core5slice29_$LT$impl$u20$$u5b$T$u5d$$GT$13get_unchecked17heef6f6ced702b0f7E
	bl	__ZN4main12instructions7Operand10unwrap_src17h8ce2eb25021ad200E
	ldr	x1, [sp]
	ldr	x2, [sp, #8]
	ldr	x4, [sp, #16]
	ldr	x3, [sp, #24]
	bl	__ZN4main7vm_util3Src7get_val17h89eb451d16de3c73E
	add	x8, sp, #32
	bl	__ZN59_$LT$main..vm_util..Value$u20$as$u20$core..clone..Clone$GT$5clone17h5a17eabc18bf908aE
	ldr	x0, [sp, #24]
	bl	__ZN4main7vm_util5Stack16read_stack_frame17h9315cae95e177d90E
	mov	x1, x0
	ldr	x0, [sp, #24]
	bl	__ZN4main7vm_util5Stack8truncate17h0d9f5788a7945e3eE
	ldr	x0, [sp, #24]
	bl	__ZN4main7vm_util5Stack15pop_stack_frame17h14e601ae09d004d1E
	ldr	x0, [sp, #24]
	ldr	q0, [sp, #32]
	sub	x1, x29, #16
	stur	q0, [x29, #-16]
	bl	__ZN4main7vm_util5Stack4push17hf8474d57900a6c0fE
	.cfi_def_cfa wsp, 80
	ldp	x29, x30, [sp, #64]
	add	sp, sp, #80
	.cfi_def_cfa_offset 0
	.cfi_restore w30
	.cfi_restore w29
	ret
	.cfi_endproc

	.p2align	2
__ZN4main16rules_approach_315push_stack_rule17hd93ea35243e08d64E:
	.cfi_startproc
	sub	sp, sp, #80
	.cfi_def_cfa_offset 80
	stp	x29, x30, [sp, #64]
	add	x29, sp, #64
	.cfi_def_cfa w29, 16
	.cfi_offset w30, -8
	.cfi_offset w29, -16
	str	x1, [sp]
	str	x2, [sp, #8]
	str	x3, [sp, #16]
	str	x4, [sp, #24]
	mov	w8, #4
	mov	x1, x8
	mov	x2, #0
	bl	__ZN4core5slice29_$LT$impl$u20$$u5b$T$u5d$$GT$13get_unchecked17heef6f6ced702b0f7E
	bl	__ZN4main12instructions7Operand10unwrap_src17h8ce2eb25021ad200E
	ldr	x1, [sp]
	ldr	x2, [sp, #8]
	ldr	x3, [sp, #16]
	ldr	x4, [sp, #24]
	bl	__ZN4main7vm_util3Src7get_val17h89eb451d16de3c73E
	add	x8, sp, #32
	bl	__ZN59_$LT$main..vm_util..Value$u20$as$u20$core..clone..Clone$GT$5clone17h5a17eabc18bf908aE
	ldr	x0, [sp, #16]
	ldr	q0, [sp, #32]
	sub	x1, x29, #16
	stur	q0, [x29, #-16]
	bl	__ZN4main7vm_util5Stack4push17hf8474d57900a6c0fE
	ldr	x0, [sp, #24]
	bl	__ZN4main9Registers6inc_ip17hb67aa2a2bee90fdaE
	.cfi_def_cfa wsp, 80
	ldp	x29, x30, [sp, #64]
	add	sp, sp, #80
	.cfi_def_cfa_offset 0
	.cfi_restore w30
	.cfi_restore w29
	ret
	.cfi_endproc

	.p2align	2
__ZN4main16rules_approach_319push_instr_ptr_rule17ha831a1e5e5f90844E:
	.cfi_startproc
	sub	sp, sp, #32
	.cfi_def_cfa_offset 32
	stp	x29, x30, [sp, #16]
	add	x29, sp, #16
	.cfi_def_cfa w29, 16
	.cfi_offset w30, -8
	.cfi_offset w29, -16
	str	x4, [sp, #8]
	mov	w8, #4
	mov	x1, x8
	mov	x2, #0
	bl	__ZN4core5slice29_$LT$impl$u20$$u5b$T$u5d$$GT$13get_unchecked17heef6f6ced702b0f7E
	bl	__ZN4main12instructions7Operand16unwrap_instr_ptr17hc6519018ee9163c9E
	ldr	x0, [sp, #8]
	bl	__ZN4main9Registers6inc_ip17hb67aa2a2bee90fdaE
	.cfi_def_cfa wsp, 32
	ldp	x29, x30, [sp, #16]
	add	sp, sp, #32
	.cfi_def_cfa_offset 0
	.cfi_restore w30
	.cfi_restore w29
	ret
	.cfi_endproc

	.p2align	2
__ZN4main16rules_approach_49halt_rule17h5c00d6745cba7c6eE:
	.cfi_startproc
	stp	x29, x30, [sp, #-16]!
	.cfi_def_cfa_offset 16
	mov	x29, sp
	.cfi_def_cfa w29, 16
	.cfi_offset w30, -8
	.cfi_offset w29, -16
	bl	__ZN4main12instructions15HaltInstruction7execute17h3d94b71409f21791E
	.cfi_def_cfa wsp, 16
	ldp	x29, x30, [sp], #16
	.cfi_def_cfa_offset 0
	.cfi_restore w30
	.cfi_restore w29
	ret
	.cfi_endproc

	.p2align	2
__ZN4main16rules_approach_48add_rule17hedda029abc2b5849E:
	.cfi_startproc
	stp	x29, x30, [sp, #-16]!
	.cfi_def_cfa_offset 16
	mov	x29, sp
	.cfi_def_cfa w29, 16
	.cfi_offset w30, -8
	.cfi_offset w29, -16
	bl	__ZN4main12instructions14AddInstruction7execute17hbbf2fe13542e736cE
	.cfi_def_cfa wsp, 16
	ldp	x29, x30, [sp], #16
	.cfi_def_cfa_offset 0
	.cfi_restore w30
	.cfi_restore w29
	ret
	.cfi_endproc

	.p2align	2
__ZN4main16rules_approach_48sub_rule17h9f46d4406a21e1b8E:
	.cfi_startproc
	stp	x29, x30, [sp, #-16]!
	.cfi_def_cfa_offset 16
	mov	x29, sp
	.cfi_def_cfa w29, 16
	.cfi_offset w30, -8
	.cfi_offset w29, -16
	bl	__ZN4main12instructions14SubInstruction7execute17h32bbd702aef68a41E
	.cfi_def_cfa wsp, 16
	ldp	x29, x30, [sp], #16
	.cfi_def_cfa_offset 0
	.cfi_restore w30
	.cfi_restore w29
	ret
	.cfi_endproc

	.p2align	2
__ZN4main16rules_approach_48mul_rule17h729dc08828dc9e55E:
	.cfi_startproc
	stp	x29, x30, [sp, #-16]!
	.cfi_def_cfa_offset 16
	mov	x29, sp
	.cfi_def_cfa w29, 16
	.cfi_offset w30, -8
	.cfi_offset w29, -16
	bl	__ZN4main12instructions14MulInstruction7execute17hc1927e975430bb56E
	.cfi_def_cfa wsp, 16
	ldp	x29, x30, [sp], #16
	.cfi_def_cfa_offset 0
	.cfi_restore w30
	.cfi_restore w29
	ret
	.cfi_endproc

	.p2align	2
__ZN4main16rules_approach_48div_rule17h46423645fb2543edE:
	.cfi_startproc
	stp	x29, x30, [sp, #-16]!
	.cfi_def_cfa_offset 16
	mov	x29, sp
	.cfi_def_cfa w29, 16
	.cfi_offset w30, -8
	.cfi_offset w29, -16
	bl	__ZN4main12instructions14DivInstruction7execute17h9b107b61b04a5120E
	.cfi_def_cfa wsp, 16
	ldp	x29, x30, [sp], #16
	.cfi_def_cfa_offset 0
	.cfi_restore w30
	.cfi_restore w29
	ret
	.cfi_endproc

	.p2align	2
__ZN4main16rules_approach_418push_function_rule17h6e921980851f1ef6E:
	.cfi_startproc
	stp	x29, x30, [sp, #-16]!
	.cfi_def_cfa_offset 16
	mov	x29, sp
	.cfi_def_cfa w29, 16
	.cfi_offset w30, -8
	.cfi_offset w29, -16
	bl	__ZN4main12instructions23PushFunctionInstruction7execute17h69237e0641c80bcfE
	.cfi_def_cfa wsp, 16
	ldp	x29, x30, [sp], #16
	.cfi_def_cfa_offset 0
	.cfi_restore w30
	.cfi_restore w29
	ret
	.cfi_endproc

	.p2align	2
__ZN4main16rules_approach_416cmp_lt_jump_rule17had435da49cfbf434E:
	.cfi_startproc
	stp	x29, x30, [sp, #-16]!
	.cfi_def_cfa_offset 16
	mov	x29, sp
	.cfi_def_cfa w29, 16
	.cfi_offset w30, -8
	.cfi_offset w29, -16
	bl	__ZN4main12instructions19CmpLtJmpInstruction7execute17h8adc5d8c8dfd3149E
	.cfi_def_cfa wsp, 16
	ldp	x29, x30, [sp], #16
	.cfi_def_cfa_offset 0
	.cfi_restore w30
	.cfi_restore w29
	ret
	.cfi_endproc

	.p2align	2
__ZN4main16rules_approach_49call_rule17h8da5b9cd672b6eb3E:
	.cfi_startproc
	stp	x29, x30, [sp, #-16]!
	.cfi_def_cfa_offset 16
	mov	x29, sp
	.cfi_def_cfa w29, 16
	.cfi_offset w30, -8
	.cfi_offset w29, -16
	bl	__ZN4main12instructions15CallInstruction7execute17h9b2d9394b717ebfbE
	.cfi_def_cfa wsp, 16
	ldp	x29, x30, [sp], #16
	.cfi_def_cfa_offset 0
	.cfi_restore w30
	.cfi_restore w29
	ret
	.cfi_endproc

	.p2align	2
__ZN4main16rules_approach_48ret_rule17h27f3b67f5d4c60ceE:
	.cfi_startproc
	stp	x29, x30, [sp, #-16]!
	.cfi_def_cfa_offset 16
	mov	x29, sp
	.cfi_def_cfa w29, 16
	.cfi_offset w30, -8
	.cfi_offset w29, -16
	bl	__ZN4main12instructions14RetInstruction7execute17ha251383e91ffdd6aE
	.cfi_def_cfa wsp, 16
	ldp	x29, x30, [sp], #16
	.cfi_def_cfa_offset 0
	.cfi_restore w30
	.cfi_restore w29
	ret
	.cfi_endproc

	.p2align	2
__ZN4main16rules_approach_415push_stack_rule17h7d20b29f30772283E:
	.cfi_startproc
	stp	x29, x30, [sp, #-16]!
	.cfi_def_cfa_offset 16
	mov	x29, sp
	.cfi_def_cfa w29, 16
	.cfi_offset w30, -8
	.cfi_offset w29, -16
	bl	__ZN4main12instructions20PushStackInstruction7execute17hbbff7cce66887ca7E
	.cfi_def_cfa wsp, 16
	ldp	x29, x30, [sp], #16
	.cfi_def_cfa_offset 0
	.cfi_restore w30
	.cfi_restore w29
	ret
	.cfi_endproc

	.p2align	2
__ZN4main16rules_approach_419push_instr_ptr_rule17h311ff0bbf4171056E:
	.cfi_startproc
	stp	x29, x30, [sp, #-16]!
	.cfi_def_cfa_offset 16
	mov	x29, sp
	.cfi_def_cfa w29, 16
	.cfi_offset w30, -8
	.cfi_offset w29, -16
	bl	__ZN4main12instructions23PushInstrPtrInstruction7execute17hb16ecd66cf1d65f2E
	.cfi_def_cfa wsp, 16
	ldp	x29, x30, [sp], #16
	.cfi_def_cfa_offset 0
	.cfi_restore w30
	.cfi_restore w29
	ret
	.cfi_endproc

	.p2align	2
__ZN4main4main17h8bd578f601f0fa06E:
Lfunc_begin24:
	.cfi_startproc
	.cfi_personality 155, _rust_eh_personality
	.cfi_lsda 16, Lexception24
	stp	x28, x27, [sp, #-32]!
	.cfi_def_cfa_offset 32
	stp	x29, x30, [sp, #16]
	add	x29, sp, #16
	.cfi_def_cfa w29, 16
	.cfi_offset w30, -8
	.cfi_offset w29, -16
	.cfi_offset w27, -24
	.cfi_offset w28, -32
	.cfi_remember_state
	sub	sp, sp, #1, lsl #12
	str	xzr, [sp]
	sub	sp, sp, #1, lsl #12
	str	xzr, [sp]
	sub	sp, sp, #1, lsl #12
	str	xzr, [sp]
	sub	sp, sp, #192
	add	x8, sp, #2, lsl #12
	add	x8, x8, #64
	str	x8, [sp, #1240]
	add	x8, sp, #3920
	str	x8, [sp, #1248]
	mov	w8, #48
	mov	x0, x8
	mov	w8, #8
	mov	x1, x8
	bl	__ZN5alloc5alloc15exchange_malloc17h941cdcdc6bb63bd7E
	str	x0, [sp, #1256]
	mov	w8, #35
	str	w8, [sp, #1300]
	strb	wzr, [sp, #1296]
	mov	w8, #2
	str	w8, [sp, #1316]
	strb	wzr, [sp, #1312]
	mov	w8, #1
	str	w8, [sp, #1332]
	strb	wzr, [sp, #1328]
	str	x0, [sp, #1264]
	and	x8, x0, #0x7
	cbnz	x8, LBB282_2
	b	LBB282_1
LBB282_1:
	ldr	x0, [sp, #1256]
	ldr	q0, [sp, #1296]
	str	q0, [x0]
	ldr	q0, [sp, #1312]
	str	q0, [x0, #16]
	ldr	q0, [sp, #1328]
	str	q0, [x0, #32]
	add	x8, sp, #1272
	mov	w9, #3
	mov	x1, x9
	bl	__ZN5alloc5slice29_$LT$impl$u20$$u5b$T$u5d$$GT$8into_vec17hb7db4ecec3366c8cE
Ltmp148:
	mov	w8, #672
	mov	x0, x8
	mov	w8, #8
	mov	x1, x8
	bl	__ZN5alloc5alloc15exchange_malloc17h941cdcdc6bb63bd7E
	str	x0, [sp, #1232]
Ltmp149:
	b	LBB282_5
LBB282_2:
	ldr	x1, [sp, #1264]
	mov	w8, #8
	mov	x0, x8
	adrp	x2, l___unnamed_71@PAGE
	add	x2, x2, l___unnamed_71@PAGEOFF
	bl	__ZN4core9panicking36panic_misaligned_pointer_dereference17hdc38b89bae20a49aE
LBB282_3:
Ltmp466:
	add	x0, sp, #1272
	bl	__ZN4core3ptr64drop_in_place$LT$alloc..vec..Vec$LT$main..vm_util..Value$GT$$GT$17h5e3a7fb19708ec5dE
Ltmp467:
	b	LBB282_182
LBB282_4:
Ltmp465:
	stur	x0, [x29, #-64]
	mov	x8, x1
	stur	w8, [x29, #-56]
	b	LBB282_3
LBB282_5:
	ldr	x8, [sp, #1232]
	str	x8, [sp, #1376]
	mov	w8, #3
	strb	w8, [sp, #1439]
Ltmp150:
	add	x8, sp, #1440
	mov	w9, #10
	mov	x0, x9
	bl	__ZN4main12instructions9InstrData11new_push_fn17h4fab9dbee3b9b2a5E
Ltmp151:
	b	LBB282_8
LBB282_6:
Ltmp233:
	add	x0, sp, #1376
	bl	__ZN4core3ptr101drop_in_place$LT$alloc..boxed..Box$LT$$u5b$main..instructions..InstructionV2$u3b$$u20$14$u5d$$GT$$GT$17hbadbccd766535580E
Ltmp234:
	b	LBB282_3
LBB282_7:
Ltmp232:
	stur	x0, [x29, #-64]
	mov	x8, x1
	stur	w8, [x29, #-56]
	b	LBB282_6
LBB282_8:
	ldrb	w0, [sp, #1439]
Ltmp152:
	add	x8, sp, #1384
	add	x1, sp, #1440
	bl	__ZN4main12instructions13InstructionV23new17hd6541c5f8eab9999E
Ltmp153:
	b	LBB282_9
LBB282_9:
	mov	w8, #14
	strb	w8, [sp, #1535]
Ltmp154:
	mov	x0, #0
	mov	w8, #1
	and	w1, w8, #0x1
	bl	__ZN4main7vm_util8StackPtr3new17h8e5f5f64b99665f5E
	str	x0, [sp, #1216]
	str	w1, [sp, #1228]
Ltmp155:
	b	LBB282_10
LBB282_10:
Ltmp156:
	mov	w8, #1
	mov	x0, x8
	bl	__ZN4main7vm_util8ConstPtr3new17h473b7f254df66ad8E
	str	x0, [sp, #1208]
Ltmp157:
	b	LBB282_11
LBB282_11:
	ldr	x8, [sp, #1208]
	ldr	w9, [sp, #1228]
	ldr	x10, [sp, #1216]
	add	x0, sp, #1576
	str	x10, [sp, #1576]
	and	w9, w9, #0x1
	strb	w9, [sp, #1584]
	str	x8, [sp, #1592]
	mov	w8, #2
	str	x8, [sp, #1600]
	mov	w8, #3
	str	x8, [sp, #1608]
Ltmp158:
	add	x8, sp, #1536
	bl	__ZN4main12instructions9InstrData11new_cmp_jmp17hd109254bc2ebee4cE
Ltmp159:
	b	LBB282_12
LBB282_12:
	ldrb	w0, [sp, #1535]
Ltmp160:
	add	x8, sp, #1480
	add	x1, sp, #1536
	bl	__ZN4main12instructions13InstructionV23new17hd6541c5f8eab9999E
Ltmp161:
	b	LBB282_13
LBB282_13:
	mov	w8, #16
	strb	w8, [sp, #1671]
Ltmp162:
	mov	x0, #0
	mov	w8, #1
	and	w1, w8, #0x1
	bl	__ZN4main7vm_util8StackPtr3new17h8e5f5f64b99665f5E
	str	x0, [sp, #1192]
	str	w1, [sp, #1204]
Ltmp163:
	b	LBB282_14
LBB282_14:
Ltmp164:
	ldr	w9, [sp, #1204]
	ldr	x0, [sp, #1192]
	add	x8, sp, #1672
	and	w1, w9, #0x1
	bl	__ZN4main12instructions9InstrData13new_ret_stack17hdf0883ccfb057066E
Ltmp165:
	b	LBB282_15
LBB282_15:
	ldrb	w0, [sp, #1671]
Ltmp166:
	add	x8, sp, #1616
	add	x1, sp, #1672
	bl	__ZN4main12instructions13InstructionV23new17hd6541c5f8eab9999E
Ltmp167:
	b	LBB282_16
LBB282_16:
	mov	w8, #2
	strb	w8, [sp, #1767]
	strb	wzr, [sp, #1847]
Ltmp168:
	mov	x0, #0
	mov	w8, #1
	and	w1, w8, #0x1
	bl	__ZN4main7vm_util8StackPtr3new17h8e5f5f64b99665f5E
	str	x0, [sp, #1176]
	str	w1, [sp, #1188]
Ltmp169:
	b	LBB282_17
LBB282_17:
Ltmp170:
	mov	w8, #1
	mov	x0, x8
	bl	__ZN4main7vm_util8ConstPtr3new17h473b7f254df66ad8E
	str	x0, [sp, #1168]
Ltmp171:
	b	LBB282_18
LBB282_18:
	ldr	x8, [sp, #1168]
	ldr	w9, [sp, #1188]
	ldr	x10, [sp, #1176]
	ldrb	w11, [sp, #1847]
	add	x0, sp, #1808
	strb	w11, [sp, #1824]
	str	x10, [sp, #1808]
	and	w9, w9, #0x1
	strb	w9, [sp, #1816]
	str	x8, [sp, #1832]
Ltmp172:
	add	x8, sp, #1768
	bl	__ZN4main12instructions9InstrData26new_binary_reg_stack_const17h2cc680dacedbc3dfE
Ltmp173:
	b	LBB282_19
LBB282_19:
	ldrb	w0, [sp, #1767]
Ltmp174:
	add	x8, sp, #1712
	add	x1, sp, #1768
	bl	__ZN4main12instructions13InstructionV23new17hd6541c5f8eab9999E
Ltmp175:
	b	LBB282_20
LBB282_20:
	mov	w8, #19
	strb	w8, [sp, #1903]
	strb	wzr, [sp, #1951]
	ldrb	w0, [sp, #1951]
Ltmp176:
	add	x8, sp, #1904
	bl	__ZN4main12instructions9InstrData18new_push_stack_reg17h82a672bcbeea080eE
Ltmp177:
	b	LBB282_21
LBB282_21:
	ldrb	w0, [sp, #1903]
Ltmp178:
	add	x8, sp, #1848
	add	x1, sp, #1904
	bl	__ZN4main12instructions13InstructionV23new17hd6541c5f8eab9999E
Ltmp179:
	b	LBB282_22
LBB282_22:
	mov	w8, #20
	strb	w8, [sp, #2007]
Ltmp180:
	mov	x0, #0
	mov	w8, #0
	and	w1, w8, #0x1
	bl	__ZN4main7vm_util8StackPtr3new17h8e5f5f64b99665f5E
	str	x0, [sp, #1152]
	str	w1, [sp, #1164]
Ltmp181:
	b	LBB282_23
LBB282_23:
	ldr	w8, [sp, #1164]
	ldr	x9, [sp, #1152]
	add	x0, sp, #2048
	str	x9, [sp, #2048]
	and	w8, w8, #0x1
	strb	w8, [sp, #2056]
	mov	w8, #1
	str	x8, [sp, #2064]
	strb	wzr, [sp, #2072]
Ltmp182:
	add	x8, sp, #2008
	bl	__ZN4main12instructions9InstrData8new_call17h9c0e33e6f3a1afa3E
Ltmp183:
	b	LBB282_24
LBB282_24:
	ldrb	w0, [sp, #2007]
Ltmp184:
	add	x8, sp, #1952
	add	x1, sp, #2008
	bl	__ZN4main12instructions13InstructionV23new17hd6541c5f8eab9999E
Ltmp185:
	b	LBB282_25
LBB282_25:
	mov	w8, #2
	strb	w8, [sp, #2135]
	strb	wzr, [sp, #2215]
Ltmp186:
	mov	x0, #0
	mov	w8, #1
	and	w1, w8, #0x1
	bl	__ZN4main7vm_util8StackPtr3new17h8e5f5f64b99665f5E
	str	x0, [sp, #1136]
	str	w1, [sp, #1148]
Ltmp187:
	b	LBB282_26
LBB282_26:
Ltmp188:
	mov	w8, #2
	mov	x0, x8
	bl	__ZN4main7vm_util8ConstPtr3new17h473b7f254df66ad8E
	str	x0, [sp, #1128]
Ltmp189:
	b	LBB282_27
LBB282_27:
	ldr	x8, [sp, #1128]
	ldr	w9, [sp, #1148]
	ldr	x10, [sp, #1136]
	ldrb	w11, [sp, #2215]
	add	x0, sp, #2176
	strb	w11, [sp, #2192]
	str	x10, [sp, #2176]
	and	w9, w9, #0x1
	strb	w9, [sp, #2184]
	str	x8, [sp, #2200]
Ltmp190:
	add	x8, sp, #2136
	bl	__ZN4main12instructions9InstrData26new_binary_reg_stack_const17h2cc680dacedbc3dfE
Ltmp191:
	b	LBB282_28
LBB282_28:
	ldrb	w0, [sp, #2135]
Ltmp192:
	add	x8, sp, #2080
	add	x1, sp, #2136
	bl	__ZN4main12instructions13InstructionV23new17hd6541c5f8eab9999E
Ltmp193:
	b	LBB282_29
LBB282_29:
	mov	w8, #19
	strb	w8, [sp, #2271]
	strb	wzr, [sp, #2319]
	ldrb	w0, [sp, #2319]
Ltmp194:
	add	x8, sp, #2272
	bl	__ZN4main12instructions9InstrData18new_push_stack_reg17h82a672bcbeea080eE
Ltmp195:
	b	LBB282_30
LBB282_30:
	ldrb	w0, [sp, #2271]
Ltmp196:
	add	x8, sp, #2216
	add	x1, sp, #2272
	bl	__ZN4main12instructions13InstructionV23new17hd6541c5f8eab9999E
Ltmp197:
	b	LBB282_31
LBB282_31:
	mov	w8, #20
	strb	w8, [sp, #2375]
Ltmp198:
	mov	x0, #0
	mov	w8, #0
	and	w1, w8, #0x1
	bl	__ZN4main7vm_util8StackPtr3new17h8e5f5f64b99665f5E
	str	x0, [sp, #1112]
	str	w1, [sp, #1124]
Ltmp199:
	b	LBB282_32
LBB282_32:
	ldr	w8, [sp, #1124]
	ldr	x9, [sp, #1112]
	add	x0, sp, #2416
	str	x9, [sp, #2416]
	and	w8, w8, #0x1
	strb	w8, [sp, #2424]
	mov	w8, #1
	str	x8, [sp, #2432]
	strb	wzr, [sp, #2440]
Ltmp200:
	add	x8, sp, #2376
	bl	__ZN4main12instructions9InstrData8new_call17h9c0e33e6f3a1afa3E
Ltmp201:
	b	LBB282_33
LBB282_33:
	ldrb	w0, [sp, #2375]
Ltmp202:
	add	x8, sp, #2320
	add	x1, sp, #2376
	bl	__ZN4main12instructions13InstructionV23new17hd6541c5f8eab9999E
Ltmp203:
	b	LBB282_34
LBB282_34:
	mov	w8, #1
	strb	w8, [sp, #2503]
	strb	wzr, [sp, #2591]
Ltmp204:
	mov	w8, #1
	mov	x0, x8
	mov	w8, #1
	and	w1, w8, #0x1
	bl	__ZN4main7vm_util8StackPtr3new17h8e5f5f64b99665f5E
	str	x0, [sp, #1096]
	str	w1, [sp, #1108]
Ltmp205:
	b	LBB282_35
LBB282_35:
Ltmp206:
	mov	w8, #2
	mov	x0, x8
	mov	w8, #1
	and	w1, w8, #0x1
	bl	__ZN4main7vm_util8StackPtr3new17h8e5f5f64b99665f5E
	str	x0, [sp, #1080]
	str	w1, [sp, #1092]
Ltmp207:
	b	LBB282_36
LBB282_36:
	ldr	w8, [sp, #1092]
	ldr	x9, [sp, #1080]
	ldr	w10, [sp, #1108]
	ldr	x11, [sp, #1096]
	ldrb	w12, [sp, #2591]
	add	x0, sp, #2544
	strb	w12, [sp, #2560]
	str	x11, [sp, #2544]
	mov	w11, #1
	and	w10, w10, w11
	strb	w10, [sp, #2552]
	str	x9, [sp, #2568]
	and	w8, w8, #0x1
	strb	w8, [sp, #2576]
Ltmp208:
	add	x8, sp, #2504
	bl	__ZN4main12instructions9InstrData26new_binary_reg_stack_stack17hb190ab858b21569dE
Ltmp209:
	b	LBB282_37
LBB282_37:
	ldrb	w0, [sp, #2503]
Ltmp210:
	add	x8, sp, #2448
	add	x1, sp, #2504
	bl	__ZN4main12instructions13InstructionV23new17hd6541c5f8eab9999E
Ltmp211:
	b	LBB282_38
LBB282_38:
	mov	w8, #17
	strb	w8, [sp, #2647]
	strb	wzr, [sp, #2695]
	ldrb	w0, [sp, #2695]
Ltmp212:
	add	x8, sp, #2648
	bl	__ZN4main12instructions9InstrData11new_ret_reg17h6c59eedeb1f85c16E
Ltmp213:
	b	LBB282_39
LBB282_39:
	ldrb	w0, [sp, #2647]
Ltmp214:
	add	x8, sp, #2592
	add	x1, sp, #2648
	bl	__ZN4main12instructions13InstructionV23new17hd6541c5f8eab9999E
Ltmp215:
	b	LBB282_40
LBB282_40:
	mov	w8, #18
	strb	w8, [sp, #2751]
Ltmp216:
	mov	x0, #0
	bl	__ZN4main7vm_util8ConstPtr3new17h473b7f254df66ad8E
	str	x0, [sp, #1072]
Ltmp217:
	b	LBB282_41
LBB282_41:
Ltmp218:
	ldr	x0, [sp, #1072]
	add	x8, sp, #2752
	bl	__ZN4main12instructions9InstrData20new_push_stack_const17hd40771eac948cb2fE
Ltmp219:
	b	LBB282_42
LBB282_42:
	ldrb	w0, [sp, #2751]
Ltmp220:
	add	x8, sp, #2696
	add	x1, sp, #2752
	bl	__ZN4main12instructions13InstructionV23new17hd6541c5f8eab9999E
Ltmp221:
	b	LBB282_43
LBB282_43:
	mov	w8, #20
	strb	w8, [sp, #2847]
Ltmp222:
	mov	x0, #0
	mov	w8, #0
	and	w1, w8, #0x1
	bl	__ZN4main7vm_util8StackPtr3new17h8e5f5f64b99665f5E
	str	x0, [sp, #1056]
	str	w1, [sp, #1068]
Ltmp223:
	b	LBB282_44
LBB282_44:
	ldr	w8, [sp, #1068]
	ldr	x9, [sp, #1056]
	add	x0, sp, #2888
	str	x9, [sp, #2888]
	and	w8, w8, #0x1
	strb	w8, [sp, #2896]
	mov	w8, #1
	str	x8, [sp, #2904]
	strb	wzr, [sp, #2912]
Ltmp224:
	add	x8, sp, #2848
	bl	__ZN4main12instructions9InstrData8new_call17h9c0e33e6f3a1afa3E
Ltmp225:
	b	LBB282_45
LBB282_45:
	ldrb	w0, [sp, #2847]
Ltmp226:
	add	x8, sp, #2792
	add	x1, sp, #2848
	bl	__ZN4main12instructions13InstructionV23new17hd6541c5f8eab9999E
Ltmp227:
	b	LBB282_46
LBB282_46:
	strb	wzr, [sp, #2975]
Ltmp228:
	add	x8, sp, #2976
	bl	__ZN4main12instructions9InstrData8new_halt17h11111db872084eb7E
Ltmp229:
	b	LBB282_47
LBB282_47:
	ldrb	w0, [sp, #2975]
Ltmp230:
	add	x8, sp, #2920
	add	x1, sp, #2976
	bl	__ZN4main12instructions13InstructionV23new17hd6541c5f8eab9999E
Ltmp231:
	b	LBB282_48
LBB282_48:
	ldr	x8, [sp, #1376]
	str	x8, [sp, #1048]
	and	x8, x8, #0x7
	cbnz	x8, LBB282_50
	b	LBB282_49
LBB282_49:
	ldr	x0, [sp, #1048]
	add	x1, sp, #1384
	mov	w8, #48
	mov	x2, x8
	str	x2, [sp, #1040]
	bl	_memcpy
	ldr	x8, [sp, #1048]
	ldr	x2, [sp, #1040]
	add	x0, x8, #48
	add	x1, sp, #1480
	bl	_memcpy
	ldr	x8, [sp, #1048]
	ldr	x2, [sp, #1040]
	add	x0, x8, #96
	add	x1, sp, #1616
	bl	_memcpy
	ldr	x8, [sp, #1048]
	ldr	x2, [sp, #1040]
	add	x0, x8, #144
	add	x1, sp, #1712
	bl	_memcpy
	ldr	x8, [sp, #1048]
	ldr	x2, [sp, #1040]
	add	x0, x8, #192
	add	x1, sp, #1848
	bl	_memcpy
	ldr	x8, [sp, #1048]
	ldr	x2, [sp, #1040]
	add	x0, x8, #240
	add	x1, sp, #1952
	bl	_memcpy
	ldr	x8, [sp, #1048]
	ldr	x2, [sp, #1040]
	add	x0, x8, #288
	add	x1, sp, #2080
	bl	_memcpy
	ldr	x8, [sp, #1048]
	ldr	x2, [sp, #1040]
	add	x0, x8, #336
	add	x1, sp, #2216
	bl	_memcpy
	ldr	x8, [sp, #1048]
	ldr	x2, [sp, #1040]
	add	x0, x8, #384
	add	x1, sp, #2320
	bl	_memcpy
	ldr	x8, [sp, #1048]
	ldr	x2, [sp, #1040]
	add	x0, x8, #432
	add	x1, sp, #2448
	bl	_memcpy
	ldr	x8, [sp, #1048]
	ldr	x2, [sp, #1040]
	add	x0, x8, #480
	add	x1, sp, #2592
	bl	_memcpy
	ldr	x8, [sp, #1048]
	ldr	x2, [sp, #1040]
	add	x0, x8, #528
	add	x1, sp, #2696
	bl	_memcpy
	ldr	x8, [sp, #1048]
	ldr	x2, [sp, #1040]
	add	x0, x8, #576
	add	x1, sp, #2792
	bl	_memcpy
	ldr	x8, [sp, #1048]
	ldr	x2, [sp, #1040]
	add	x0, x8, #624
	add	x1, sp, #2920
	bl	_memcpy
	ldr	x0, [sp, #1376]
Ltmp235:
	add	x8, sp, #1352
	mov	w9, #14
	mov	x1, x9
	bl	__ZN5alloc5slice29_$LT$impl$u20$$u5b$T$u5d$$GT$8into_vec17h19babe651bef01fbE
Ltmp236:
	b	LBB282_51
LBB282_50:
	ldr	x1, [sp, #1048]
	mov	w8, #8
	mov	x0, x8
	adrp	x2, l___unnamed_72@PAGE
	add	x2, x2, l___unnamed_72@PAGEOFF
	bl	__ZN4core9panicking36panic_misaligned_pointer_dereference17hdc38b89bae20a49aE
LBB282_51:
	add	x8, sp, #1352
	str	x8, [sp, #1344]
Ltmp237:
	mov	w8, #672
	mov	x0, x8
	mov	w8, #8
	mov	x1, x8
	bl	__ZN5alloc5alloc15exchange_malloc17h941cdcdc6bb63bd7E
	str	x0, [sp, #1032]
Ltmp238:
	b	LBB282_54
LBB282_52:
Ltmp461:
	add	x0, sp, #1352
	bl	__ZN4core3ptr77drop_in_place$LT$alloc..vec..Vec$LT$main..instructions..InstructionV2$GT$$GT$17h570c83b0fdd350d5E
Ltmp462:
	b	LBB282_3
LBB282_53:
Ltmp460:
	stur	x0, [x29, #-64]
	mov	x8, x1
	stur	w8, [x29, #-56]
	b	LBB282_52
LBB282_54:
	ldr	x8, [sp, #1032]
	str	x8, [sp, #3040]
	mov	w8, #8
	str	x8, [sp, #3056]
	mov	w8, #5
	strb	w8, [sp, #3048]
Ltmp239:
	mov	x0, #0
